Certificate:
    Data:
        Version: 3 (0x2)
        Serial Number: 1 (0x1)
    Signature Algorithm: sha256WithRSAEncryption
        Issuer: C=IN, ST=Delhi, L=Delhi, O=IIITD, OU=NS, CN=Anshuman/emailAddress=anshuman14021@iiitd.ac.in
        Validity
            Not Before: Nov 18 16:49:34 2016 GMT
            Not After : Aug 15 16:49:34 2019 GMT
        Subject: C=IN, ST=Delhi, L=NCR, O=IIITD, CN=NS
        Subject Public Key Info:
            Public Key Algorithm: rsaEncryption
                Public-Key: (2048 bit)
                Modulus:
                    00:c3:d4:e1:52:43:e1:95:3c:41:61:be:66:42:43:
                    be:34:f2:e9:d7:bc:fb:7c:09:c4:38:35:fe:d5:fa:
                    c6:7e:a9:eb:0d:81:ab:a2:01:c7:e9:13:95:c7:73:
                    95:cb:99:b7:b4:0c:af:a0:c2:31:4e:0f:d0:61:4f:
                    8c:b8:8d:12:79:82:2d:50:64:e3:b4:bc:4d:2a:66:
                    ad:a5:bd:ab:ac:f6:25:17:23:75:dc:90:d4:82:06:
                    94:69:f3:59:77:51:b3:15:bf:3b:8a:6d:a0:6d:53:
                    c5:f9:47:a4:cd:16:c1:a7:01:f8:a1:1b:8a:b2:19:
                    c5:78:d0:58:b0:69:94:cb:ab:9d:ce:9c:c4:d9:68:
                    86:ca:30:eb:0e:e3:e0:18:b9:93:84:34:45:79:b6:
                    49:bf:53:52:9e:b8:90:df:bf:6e:22:01:77:1e:03:
                    f9:92:8e:3b:aa:69:cb:b9:f3:b1:1b:3a:f5:4b:c1:
                    be:9c:07:e3:b3:5d:61:2d:1f:1d:80:4c:1e:8c:6b:
                    e2:f1:a7:39:a2:79:8a:10:58:09:cd:a0:63:8a:f0:
                    3e:34:e0:fc:e2:5e:37:c1:aa:df:12:d1:9a:d7:e2:
                    e8:01:76:e5:b4:43:0f:68:5f:c0:04:f8:bf:4c:8a:
                    1a:a6:e6:ee:d6:2d:43:ce:05:62:d1:af:ae:b5:dc:
                    f4:89
                Exponent: 65537 (0x10001)
        X509v3 extensions:
            X509v3 Subject Key Identifier: 
                E8:9E:B9:40:7F:08:6A:27:CC:A6:87:BE:D1:7D:BD:2B:48:8E:E8:A9
            X509v3 Authority Key Identifier: 
                keyid:64:04:6B:53:6C:01:60:57:A0:47:FA:CB:98:02:2D:6F:01:9A:10:C3

            X509v3 Basic Constraints: 
                CA:FALSE
            X509v3 Key Usage: 
                Digital Signature, Key Encipherment
            X509v3 Subject Alternative Name: 
                DNS:example.com, DNS:www.example.com, DNS:mail.example.com, DNS:ftp.example.com
            Netscape Comment: 
                OpenSSL Generated Certificate
    Signature Algorithm: sha256WithRSAEncryption
         60:dd:38:29:fd:01:7f:e4:e4:7e:78:31:2c:ff:3a:0a:b7:3d:
         72:76:f5:ba:89:ba:ad:39:3c:23:a7:6d:f4:e2:60:8f:0d:e2:
         d8:0e:26:88:08:c4:d6:ed:47:36:ce:d5:86:ad:64:c4:e8:05:
         39:a4:04:cf:53:e0:75:29:f8:dd:87:cb:fb:07:ea:fd:9a:6f:
         d8:0c:6e:48:3a:74:aa:99:3c:74:fb:39:43:ed:ff:f9:92:04:
         16:16:07:52:61:c7:46:7a:f8:04:9e:6b:54:f6:0e:2b:0b:2e:
         5b:4c:e3:cf:3c:4d:9c:e1:47:5e:fa:9a:fd:b0:45:6f:61:90:
         3a:ee:41:eb:a3:5e:e1:ea:52:73:c4:e4:1a:e0:fe:3c:aa:f2:
         84:5f:d0:22:ef:bc:e5:bb:17:9c:b7:7f:71:ae:bf:22:ec:a5:
         30:ab:46:c7:64:92:e5:df:22:a6:b4:2b:4c:de:d5:4c:cc:82:
         6e:86:3b:6b:31:d0:c4:14:70:79:31:5d:27:5a:6a:00:7c:0b:
         1f:f9:3a:27:f4:10:32:ae:9c:da:64:08:ec:bc:8f:41:6b:af:
         37:ba:91:38:d7:99:c8:38:38:0f:7f:46:d9:78:ec:51:11:b9:
         f4:9f:7c:12:6f:e1:88:6f:40:c8:2c:4c:35:2c:7b:12:62:10:
         a5:e6:f7:97:82:25:d5:ed:bc:34:44:17:b1:10:c3:af:af:34:
         61:17:7b:3a:1b:d4:0c:a0:5b:13:ad:20:2e:4d:72:79:90:95:
         b1:40:da:63:51:64:1c:18:03:c3:ce:72:08:4b:cb:3f:90:48:
         d4:de:7d:80:36:02:ae:45:1a:ea:7c:46:cd:1e:3f:e9:18:9d:
         17:31:b0:3e:7a:53:d4:24:66:e1:92:89:8d:70:c4:a9:2c:e4:
         be:1c:67:86:e3:9b:67:08:b7:82:33:e0:62:b6:76:ac:96:f8:
         33:76:f5:83:10:7d:40:bd:f8:44:4b:46:53:a6:99:cb:6c:19:
         7f:21:0c:78:b8:75:5d:8d:79:91:10:d5:44:e0:55:80:31:97:
         82:7b:88:ff:fe:2e:1e:30:e1:8f:5d:9a:44:6f:23:d0:bb:72:
         fe:45:f9:da:9f:c2:60:08:99:86:96:bc:03:19:02:d1:25:68:
         19:c0:33:24:35:bf:6a:59:16:9d:86:69:a2:64:5c:da:77:a0:
         11:ed:b6:56:54:a8:6a:b0:a3:2f:d6:af:31:d3:7f:58:6f:f8:
         55:a8:7c:33:86:fc:4c:c1:3f:19:a8:74:98:87:34:14:86:fd:
         b6:ff:4c:2f:0c:1c:cc:c7:0c:e3:5c:99:05:08:66:47:2c:c2:
         c1:0f:32:90:8c:2c:9f:e4
-----BEGIN CERTIFICATE-----
MIIFITCCAwmgAwIBAgIBATANBgkqhkiG9w0BAQsFADCBhzELMAkGA1UEBhMCSU4x
DjAMBgNVBAgMBURlbGhpMQ4wDAYDVQQHDAVEZWxoaTEOMAwGA1UECgwFSUlJVEQx
CzAJBgNVBAsMAk5TMREwDwYDVQQDDAhBbnNodW1hbjEoMCYGCSqGSIb3DQEJARYZ
YW5zaHVtYW4xNDAyMUBpaWl0ZC5hYy5pbjAeFw0xNjExMTgxNjQ5MzRaFw0xOTA4
MTUxNjQ5MzRaMEgxCzAJBgNVBAYTAklOMQ4wDAYDVQQIDAVEZWxoaTEMMAoGA1UE
BwwDTkNSMQ4wDAYDVQQKDAVJSUlURDELMAkGA1UEAwwCTlMwggEiMA0GCSqGSIb3
DQEBAQUAA4IBDwAwggEKAoIBAQDD1OFSQ+GVPEFhvmZCQ7408unXvPt8CcQ4Nf7V
+sZ+qesNgauiAcfpE5XHc5XLmbe0DK+gwjFOD9BhT4y4jRJ5gi1QZOO0vE0qZq2l
vaus9iUXI3XckNSCBpRp81l3UbMVvzuKbaBtU8X5R6TNFsGnAfihG4qyGcV40Fiw
aZTLq53OnMTZaIbKMOsO4+AYuZOENEV5tkm/U1KeuJDfv24iAXceA/mSjjuqacu5
87EbOvVLwb6cB+OzXWEtHx2ATB6Ma+LxpzmieYoQWAnNoGOK8D404PziXjfBqt8S
0ZrX4ugBduW0Qw9oX8AE+L9Mihqm5u7WLUPOBWLRr6613PSJAgMBAAGjgdUwgdIw
HQYDVR0OBBYEFOieuUB/CGonzKaHvtF9vStIjuipMB8GA1UdIwQYMBaAFGQEa1Ns
AWBXoEf6y5gCLW8BmhDDMAkGA1UdEwQCMAAwCwYDVR0PBAQDAgWgMEoGA1UdEQRD
MEGCC2V4YW1wbGUuY29tgg93d3cuZXhhbXBsZS5jb22CEG1haWwuZXhhbXBsZS5j
b22CD2Z0cC5leGFtcGxlLmNvbTAsBglghkgBhvhCAQ0EHxYdT3BlblNTTCBHZW5l
cmF0ZWQgQ2VydGlmaWNhdGUwDQYJKoZIhvcNAQELBQADggIBAGDdOCn9AX/k5H54
MSz/Ogq3PXJ29bqJuq05PCOnbfTiYI8N4tgOJogIxNbtRzbO1YatZMToBTmkBM9T
4HUp+N2Hy/sH6v2ab9gMbkg6dKqZPHT7OUPt//mSBBYWB1Jhx0Z6+ASea1T2DisL
LltM4888TZzhR176mv2wRW9hkDruQeujXuHqUnPE5Brg/jyq8oRf0CLvvOW7F5y3
f3GuvyLspTCrRsdkkuXfIqa0K0ze1UzMgm6GO2sx0MQUcHkxXSdaagB8Cx/5Oif0
EDKunNpkCOy8j0Frrze6kTjXmcg4OA9/Rtl47FERufSffBJv4YhvQMgsTDUsexJi
EKXm95eCJdXtvDREF7EQw6+vNGEXezob1AygWxOtIC5NcnmQlbFA2mNRZBwYA8PO
cghLyz+QSNTefYA2Aq5FGup8Rs0eP+kYnRcxsD56U9QkZuGSiY1wxKks5L4cZ4bj
m2cIt4Iz4GK2dqyW+DN29YMQfUC9+ERLRlOmmctsGX8hDHi4dV2NeZEQ1UTgVYAx
l4J7iP/+Lh4w4Y9dmkRvI9C7cv5F+dqfwmAImYaWvAMZAtElaBnAMyQ1v2pZFp2G
aaJkXNp3oBHttlZUqGqwoy/WrzHTf1hv+FWofDOG/EzBPxmodJiHNBSG/bb/TC8M
HMzHDONcmQUIZkcswsEPMpCMLJ/k
-----END CERTIFICATE-----
