Certificate:
    Data:
        Version: 3 (0x2)
        Serial Number: 3 (0x3)
    Signature Algorithm: sha256WithRSAEncryption
        Issuer: C=IN, ST=Delhi, L=Delhi, O=IIITD, OU=NS, CN=Anshuman/emailAddress=anshuman14021@iiitd.ac.in
        Validity
            Not Before: Nov 19 17:45:00 2016 GMT
            Not After : Aug 16 17:45:00 2019 GMT
        Subject: C=IN, ST=Delhi, L=NCR, O=IIITD, CN=NS
        Subject Public Key Info:
            Public Key Algorithm: rsaEncryption
                Public-Key: (2048 bit)
                Modulus:
                    00:af:a3:cf:b7:ff:6c:6b:60:cd:36:d8:77:86:bb:
                    73:cb:74:53:0b:74:b4:f1:45:4f:7a:86:23:e2:17:
                    9e:4b:02:be:48:ba:4c:ee:80:77:67:42:20:af:d0:
                    a6:7a:6b:83:c6:30:7d:51:c8:ab:12:27:12:98:12:
                    82:e5:7e:98:07:cb:fd:02:ee:fe:bb:f3:1a:03:b0:
                    83:c5:26:62:d6:67:61:1c:92:06:e9:a6:8f:74:22:
                    46:92:d7:c4:c0:97:e2:4b:c3:e9:7f:af:33:11:5a:
                    69:ed:65:81:d9:ef:2f:25:78:01:f2:9e:4f:82:e7:
                    5f:73:97:97:1b:7a:23:67:2e:14:6a:45:d8:84:94:
                    b9:cd:92:68:3b:af:bd:1c:3d:41:a4:90:2c:ec:46:
                    c6:1a:8a:6d:14:89:9b:7d:e9:e1:7f:34:d3:d3:4a:
                    bf:06:c8:23:2b:47:c7:75:25:c4:a6:ef:c5:b0:a4:
                    67:22:9f:95:8a:17:ff:50:6b:b3:5b:05:ca:8a:3b:
                    2e:f1:c2:3c:92:23:5e:9d:66:70:c5:ac:a9:e3:d0:
                    f1:cd:ea:85:c3:a1:18:dd:57:25:99:c0:24:71:85:
                    20:4c:b3:c5:04:9b:7f:dc:79:21:2a:59:34:a7:f8:
                    53:44:60:97:93:40:15:3c:ab:68:a2:a8:4c:2a:a6:
                    9c:33
                Exponent: 65537 (0x10001)
        X509v3 extensions:
            X509v3 Subject Key Identifier: 
                26:65:A3:1F:F8:A5:5D:A9:D9:69:84:05:AD:F5:97:CC:FB:DA:93:C0
            X509v3 Authority Key Identifier: 
                keyid:64:04:6B:53:6C:01:60:57:A0:47:FA:CB:98:02:2D:6F:01:9A:10:C3

            X509v3 Basic Constraints: 
                CA:FALSE
            X509v3 Key Usage: 
                Digital Signature, Key Encipherment
            X509v3 Subject Alternative Name: 
                DNS:example.com, DNS:www.example.com, DNS:mail.example.com, DNS:ftp.example.com
            Netscape Comment: 
                OpenSSL Generated Certificate
    Signature Algorithm: sha256WithRSAEncryption
         72:03:47:fd:9d:a8:0e:a3:75:a6:84:81:6b:2e:b5:6a:4d:2b:
         37:a6:f6:f2:fb:b2:f1:91:fd:58:64:10:c9:4d:b7:b2:20:8e:
         b2:0c:fb:9d:be:8e:ad:fd:2a:cb:9c:9b:bc:40:96:08:15:d6:
         eb:c7:42:0a:bf:0e:ff:1c:d6:40:1e:4c:71:7a:74:c8:c0:13:
         e3:36:27:df:fc:a3:c5:69:c3:6c:5e:12:0e:44:cb:5a:46:13:
         d0:53:98:52:1e:ef:ee:c0:01:63:c1:54:ca:e8:5e:2c:e0:a0:
         82:b6:2a:3a:0a:ca:0f:98:ad:a9:63:aa:39:3c:d2:ed:b4:45:
         d8:62:7a:42:9e:0f:79:42:40:0f:c4:0c:69:e9:dd:97:77:e5:
         7a:fd:98:f3:2f:fc:b3:a1:bb:f5:88:a2:68:1c:9e:e1:d2:f9:
         b0:5a:6f:1d:5c:95:02:b5:ad:c1:86:eb:06:1a:59:bb:53:ce:
         89:8c:c0:5e:b1:84:48:7b:33:df:3a:54:99:9a:3e:7a:9e:55:
         f2:d0:e5:98:39:0c:2e:87:1f:40:12:32:02:b6:59:8d:ff:d1:
         c0:c9:d9:10:91:df:0e:ba:aa:ca:c9:cf:64:e7:a4:6a:34:6c:
         46:7a:8a:43:98:88:ff:1d:31:85:9f:dd:04:d5:42:1f:85:30:
         e9:a1:d7:51:98:58:48:b0:7f:a4:d4:6d:c3:3f:aa:c0:34:d6:
         8a:74:e9:ca:40:02:6a:c2:00:98:52:98:58:f3:45:1d:ed:b5:
         46:71:db:0e:c3:b5:f7:a2:3a:63:a7:70:da:79:39:de:4e:9d:
         a3:5e:e3:37:02:b2:05:74:74:76:2c:ba:7b:b6:ef:6b:ca:6e:
         fb:91:b2:cf:8c:aa:78:65:aa:56:79:f5:c7:d7:a8:48:19:d8:
         a5:55:e6:f8:5d:54:91:67:9c:a5:95:73:49:ce:dd:a5:23:fa:
         0d:f1:58:bc:81:d5:f4:56:22:5a:d1:11:aa:cb:e7:79:55:d6:
         a3:6c:36:28:7a:4d:68:a7:73:32:b9:be:c6:4a:73:3d:13:a1:
         3f:07:3e:32:cd:1f:a7:99:5d:7a:b4:fe:81:7c:26:5c:15:53:
         98:8a:b1:c1:6b:4f:72:5b:53:1c:ca:36:f1:eb:14:de:89:02:
         d0:15:9b:15:4a:62:3d:e2:40:be:2a:99:ce:28:e0:d5:2c:29:
         36:d9:a0:2b:5e:ce:17:31:ab:7d:31:e8:98:6b:ef:09:09:a3:
         80:40:12:29:e6:eb:69:41:ae:cf:a8:f7:c3:a4:3b:7c:bc:bf:
         7b:93:7b:a2:18:2b:ce:a3:37:ba:9e:58:88:b7:ff:bd:3b:f5:
         f5:d3:7f:40:b6:00:04:a4
-----BEGIN CERTIFICATE-----
MIIFITCCAwmgAwIBAgIBAzANBgkqhkiG9w0BAQsFADCBhzELMAkGA1UEBhMCSU4x
DjAMBgNVBAgMBURlbGhpMQ4wDAYDVQQHDAVEZWxoaTEOMAwGA1UECgwFSUlJVEQx
CzAJBgNVBAsMAk5TMREwDwYDVQQDDAhBbnNodW1hbjEoMCYGCSqGSIb3DQEJARYZ
YW5zaHVtYW4xNDAyMUBpaWl0ZC5hYy5pbjAeFw0xNjExMTkxNzQ1MDBaFw0xOTA4
MTYxNzQ1MDBaMEgxCzAJBgNVBAYTAklOMQ4wDAYDVQQIDAVEZWxoaTEMMAoGA1UE
BwwDTkNSMQ4wDAYDVQQKDAVJSUlURDELMAkGA1UEAwwCTlMwggEiMA0GCSqGSIb3
DQEBAQUAA4IBDwAwggEKAoIBAQCvo8+3/2xrYM022HeGu3PLdFMLdLTxRU96hiPi
F55LAr5IukzugHdnQiCv0KZ6a4PGMH1RyKsSJxKYEoLlfpgHy/0C7v678xoDsIPF
JmLWZ2Eckgbppo90IkaS18TAl+JLw+l/rzMRWmntZYHZ7y8leAHynk+C519zl5cb
eiNnLhRqRdiElLnNkmg7r70cPUGkkCzsRsYaim0UiZt96eF/NNPTSr8GyCMrR8d1
JcSm78WwpGcin5WKF/9Qa7NbBcqKOy7xwjySI16dZnDFrKnj0PHN6oXDoRjdVyWZ
wCRxhSBMs8UEm3/ceSEqWTSn+FNEYJeTQBU8q2iiqEwqppwzAgMBAAGjgdUwgdIw
HQYDVR0OBBYEFCZlox/4pV2p2WmEBa31l8z72pPAMB8GA1UdIwQYMBaAFGQEa1Ns
AWBXoEf6y5gCLW8BmhDDMAkGA1UdEwQCMAAwCwYDVR0PBAQDAgWgMEoGA1UdEQRD
MEGCC2V4YW1wbGUuY29tgg93d3cuZXhhbXBsZS5jb22CEG1haWwuZXhhbXBsZS5j
b22CD2Z0cC5leGFtcGxlLmNvbTAsBglghkgBhvhCAQ0EHxYdT3BlblNTTCBHZW5l
cmF0ZWQgQ2VydGlmaWNhdGUwDQYJKoZIhvcNAQELBQADggIBAHIDR/2dqA6jdaaE
gWsutWpNKzem9vL7svGR/VhkEMlNt7IgjrIM+52+jq39Ksucm7xAlggV1uvHQgq/
Dv8c1kAeTHF6dMjAE+M2J9/8o8Vpw2xeEg5Ey1pGE9BTmFIe7+7AAWPBVMroXizg
oIK2KjoKyg+Yraljqjk80u20RdhiekKeD3lCQA/EDGnp3Zd35Xr9mPMv/LOhu/WI
omgcnuHS+bBabx1clQK1rcGG6wYaWbtTzomMwF6xhEh7M986VJmaPnqeVfLQ5Zg5
DC6HH0ASMgK2WY3/0cDJ2RCR3w66qsrJz2TnpGo0bEZ6ikOYiP8dMYWf3QTVQh+F
MOmh11GYWEiwf6TUbcM/qsA01op06cpAAmrCAJhSmFjzRR3ttUZx2w7DtfeiOmOn
cNp5Od5OnaNe4zcCsgV0dHYsunu272vKbvuRss+MqnhlqlZ59cfXqEgZ2KVV5vhd
VJFnnKWVc0nO3aUj+g3xWLyB1fRWIlrREarL53lV1qNsNih6TWinczK5vsZKcz0T
oT8HPjLNH6eZXXq0/oF8JlwVU5iKscFrT3JbUxzKNvHrFN6JAtAVmxVKYj3iQL4q
mc4o4NUsKTbZoCtezhcxq30x6Jhr7wkJo4BAEinm62lBrs+o98OkO3y8v3uTe6IY
K86jN7qeWIi3/7079fXTf0C2AASk
-----END CERTIFICATE-----
