Certificate:
    Data:
        Version: 3 (0x2)
        Serial Number: 2 (0x2)
    Signature Algorithm: sha256WithRSAEncryption
        Issuer: C=IN, ST=Delhi, L=Delhi, O=IIITD, OU=NS, CN=Anshuman/emailAddress=anshuman14021@iiitd.ac.in
        Validity
            Not Before: Nov 19 17:42:36 2016 GMT
            Not After : Aug 16 17:42:36 2019 GMT
        Subject: C=IN, ST=Delhi, L=NCR, O=IIITD, CN=NS
        Subject Public Key Info:
            Public Key Algorithm: rsaEncryption
                Public-Key: (2048 bit)
                Modulus:
                    00:b8:23:f5:e8:c9:3e:81:38:52:9b:73:be:86:49:
                    25:0f:c9:a9:90:98:b1:6c:fd:36:74:ce:9f:13:0a:
                    d4:bc:f9:4c:bc:2b:dd:ba:2d:6f:b1:f0:45:d8:98:
                    7d:42:89:63:f5:ab:98:5a:19:09:3a:ad:56:fe:27:
                    ad:3d:a6:17:ad:c6:c0:5c:11:1f:39:ef:6b:68:1f:
                    bd:f6:6c:b6:95:51:88:5a:13:3e:d7:2f:51:3f:ec:
                    d9:ba:0e:ca:8c:3e:0b:3f:e9:fa:d8:03:45:dc:99:
                    32:6e:ef:82:76:f1:c6:17:35:89:2e:b9:44:8e:95:
                    6b:36:ff:e5:8e:8a:3a:0e:94:34:cf:fb:3b:e2:d2:
                    3f:b3:8a:a4:be:de:bd:ea:bc:d6:17:f7:64:75:d8:
                    fe:7e:42:fe:00:46:a1:7b:30:ee:6d:a2:41:42:b1:
                    ed:ed:f1:03:47:2b:a1:98:35:d3:2c:79:59:a6:e5:
                    29:af:0c:76:0d:6f:38:f6:12:8a:4b:a5:31:4f:d0:
                    13:87:c1:ae:6c:12:cf:d2:31:2d:f9:10:42:57:cc:
                    56:f9:a7:5c:4b:76:0a:87:8e:50:cc:0e:a3:1d:ee:
                    58:05:0a:8b:98:ff:5d:25:b8:0b:22:9e:b6:80:0b:
                    e5:8a:ae:20:92:6c:7b:09:7f:b3:af:62:ab:5f:01:
                    00:a7
                Exponent: 65537 (0x10001)
        X509v3 extensions:
            X509v3 Subject Key Identifier: 
                5D:0D:F1:FE:88:B7:12:A1:7E:62:DD:28:D0:D7:79:46:52:BB:81:3A
            X509v3 Authority Key Identifier: 
                keyid:64:04:6B:53:6C:01:60:57:A0:47:FA:CB:98:02:2D:6F:01:9A:10:C3

            X509v3 Basic Constraints: 
                CA:FALSE
            X509v3 Key Usage: 
                Digital Signature, Key Encipherment
            X509v3 Subject Alternative Name: 
                DNS:example.com, DNS:www.example.com, DNS:mail.example.com, DNS:ftp.example.com
            Netscape Comment: 
                OpenSSL Generated Certificate
    Signature Algorithm: sha256WithRSAEncryption
         30:bb:d5:e8:9f:d7:0f:28:85:a4:cc:00:fa:2b:b6:4d:cd:c0:
         67:13:33:1b:25:7d:50:66:27:b8:32:d5:e0:51:91:5a:68:76:
         73:3b:ec:b2:f4:33:c8:a4:a4:7c:9c:47:7f:c8:9d:e5:af:06:
         50:34:d4:f7:f9:47:20:86:d0:21:46:96:6a:ad:67:44:f0:ab:
         73:f2:eb:ac:9b:4c:bb:85:52:e7:56:69:e6:4a:fe:4b:5d:5c:
         65:39:d9:63:94:21:c7:41:7d:d3:04:f7:c3:48:51:df:d0:5d:
         93:e9:bb:1c:2a:0b:f6:7b:eb:95:f2:2a:ce:06:50:fa:52:6c:
         d8:73:7c:0d:23:11:11:4c:b6:8f:44:e7:63:9a:8e:b0:36:d2:
         54:d8:da:b4:17:c6:c2:1c:da:73:79:d3:41:fe:70:8f:5a:a0:
         f1:16:46:d2:8f:2c:6a:62:a1:06:aa:7d:d9:cd:7b:c0:f8:f5:
         78:95:3f:e4:82:14:ce:b8:93:c2:3a:18:bb:d3:24:03:42:07:
         15:7a:27:1e:c9:8a:d3:9a:e7:f5:64:1b:2f:b5:89:03:c1:68:
         21:ab:15:fd:81:02:79:76:08:74:d1:7e:ad:99:7b:a9:3e:5e:
         e5:ee:05:10:9c:54:31:2b:9c:11:1d:c9:42:a7:2d:26:06:ce:
         07:86:c2:e9:e4:e7:25:2b:5e:e1:b7:4d:a4:30:19:3f:20:cc:
         65:57:21:7c:0e:e9:41:62:20:25:a5:6e:89:3a:b0:44:7f:00:
         cd:bc:f9:55:ec:89:4a:85:dc:3c:6f:46:81:a1:8a:eb:f7:87:
         2c:6b:2a:82:aa:76:5a:48:a4:22:40:d3:3b:02:d8:73:6b:97:
         55:7e:d5:d5:ff:37:62:be:94:f3:e8:0c:a6:a0:5e:e0:27:04:
         3d:65:67:21:4e:bc:25:3e:87:f2:1b:3b:e0:a2:a6:a8:17:a3:
         8f:68:06:f5:b9:92:31:51:ae:c0:26:2d:25:6b:4b:a8:45:df:
         95:74:2c:a5:31:01:bc:7a:bf:d0:03:e6:47:09:22:37:63:f6:
         43:fe:fa:ab:7e:46:0e:78:70:ea:08:3b:3d:99:35:39:57:ba:
         52:8c:9a:91:13:c0:dc:32:12:87:0e:a1:95:8a:a2:ae:24:d1:
         43:ed:f1:9f:3a:4a:40:a4:2b:e7:6a:f0:e4:49:db:eb:27:44:
         03:ff:37:2e:cb:8f:82:be:f3:f8:90:3a:74:a5:66:cd:24:3a:
         6c:ec:fc:cd:c7:bc:6a:48:22:00:39:50:1a:be:07:d6:53:01:
         aa:11:f5:96:11:88:d5:03:a2:08:ca:ee:ae:91:fc:52:9c:d5:
         f0:2f:bc:59:ff:89:56:80
-----BEGIN CERTIFICATE-----
MIIFITCCAwmgAwIBAgIBAjANBgkqhkiG9w0BAQsFADCBhzELMAkGA1UEBhMCSU4x
DjAMBgNVBAgMBURlbGhpMQ4wDAYDVQQHDAVEZWxoaTEOMAwGA1UECgwFSUlJVEQx
CzAJBgNVBAsMAk5TMREwDwYDVQQDDAhBbnNodW1hbjEoMCYGCSqGSIb3DQEJARYZ
YW5zaHVtYW4xNDAyMUBpaWl0ZC5hYy5pbjAeFw0xNjExMTkxNzQyMzZaFw0xOTA4
MTYxNzQyMzZaMEgxCzAJBgNVBAYTAklOMQ4wDAYDVQQIDAVEZWxoaTEMMAoGA1UE
BwwDTkNSMQ4wDAYDVQQKDAVJSUlURDELMAkGA1UEAwwCTlMwggEiMA0GCSqGSIb3
DQEBAQUAA4IBDwAwggEKAoIBAQC4I/XoyT6BOFKbc76GSSUPyamQmLFs/TZ0zp8T
CtS8+Uy8K926LW+x8EXYmH1CiWP1q5haGQk6rVb+J609phetxsBcER8572toH732
bLaVUYhaEz7XL1E/7Nm6DsqMPgs/6frYA0XcmTJu74J28cYXNYkuuUSOlWs2/+WO
ijoOlDTP+zvi0j+ziqS+3r3qvNYX92R12P5+Qv4ARqF7MO5tokFCse3t8QNHK6GY
NdMseVmm5SmvDHYNbzj2EopLpTFP0BOHwa5sEs/SMS35EEJXzFb5p1xLdgqHjlDM
DqMd7lgFCouY/10luAsinraAC+WKriCSbHsJf7OvYqtfAQCnAgMBAAGjgdUwgdIw
HQYDVR0OBBYEFF0N8f6ItxKhfmLdKNDXeUZSu4E6MB8GA1UdIwQYMBaAFGQEa1Ns
AWBXoEf6y5gCLW8BmhDDMAkGA1UdEwQCMAAwCwYDVR0PBAQDAgWgMEoGA1UdEQRD
MEGCC2V4YW1wbGUuY29tgg93d3cuZXhhbXBsZS5jb22CEG1haWwuZXhhbXBsZS5j
b22CD2Z0cC5leGFtcGxlLmNvbTAsBglghkgBhvhCAQ0EHxYdT3BlblNTTCBHZW5l
cmF0ZWQgQ2VydGlmaWNhdGUwDQYJKoZIhvcNAQELBQADggIBADC71eif1w8ohaTM
APortk3NwGcTMxslfVBmJ7gy1eBRkVpodnM77LL0M8ikpHycR3/IneWvBlA01Pf5
RyCG0CFGlmqtZ0Twq3Py66ybTLuFUudWaeZK/ktdXGU52WOUIcdBfdME98NIUd/Q
XZPpuxwqC/Z765XyKs4GUPpSbNhzfA0jERFMto9E52OajrA20lTY2rQXxsIc2nN5
00H+cI9aoPEWRtKPLGpioQaqfdnNe8D49XiVP+SCFM64k8I6GLvTJANCBxV6Jx7J
itOa5/VkGy+1iQPBaCGrFf2BAnl2CHTRfq2Ze6k+XuXuBRCcVDErnBEdyUKnLSYG
zgeGwunk5yUrXuG3TaQwGT8gzGVXIXwO6UFiICWlbok6sER/AM28+VXsiUqF3Dxv
RoGhiuv3hyxrKoKqdlpIpCJA0zsC2HNrl1V+1dX/N2K+lPPoDKagXuAnBD1lZyFO
vCU+h/IbO+CipqgXo49oBvW5kjFRrsAmLSVrS6hF35V0LKUxAbx6v9AD5kcJIjdj
9kP++qt+Rg54cOoIOz2ZNTlXulKMmpETwNwyEocOoZWKoq4k0UPt8Z86SkCkK+dq
8ORJ2+snRAP/Ny7Lj4K+8/iQOnSlZs0kOmzs/M3HvGpIIgA5UBq+B9ZTAaoR9ZYR
iNUDogjK7q6R/FKc1fAvvFn/iVaA
-----END CERTIFICATE-----
