Certificate:
    Data:
        Version: 3 (0x2)
        Serial Number: 1 (0x1)
    Signature Algorithm: sha256WithRSAEncryption
        Issuer: C=IN, ST=Delhi, L=Delhi, O=IIITD, OU=NS, CN=Anshuman/emailAddress=anshuman14021@iiitd.ac.in
        Validity
            Not Before: Nov 19 17:39:39 2016 GMT
            Not After : Aug 16 17:39:39 2019 GMT
        Subject: C=IN, ST=Delhi, L=NCR, O=IIITD, CN=NS
        Subject Public Key Info:
            Public Key Algorithm: rsaEncryption
                Public-Key: (2048 bit)
                Modulus:
                    00:bc:6f:b7:9a:07:57:25:b1:de:28:62:58:7c:4a:
                    8f:01:a0:c7:6e:df:be:c2:0b:d6:25:52:b9:ff:67:
                    32:85:b6:d7:ac:39:d3:70:e5:85:f1:98:33:af:e2:
                    58:60:8e:b2:c9:0b:b9:f0:ce:cd:ee:26:b5:6c:6f:
                    6c:df:2d:8a:c3:5e:be:c2:16:c6:c4:30:86:f9:7c:
                    9d:2d:48:7a:20:13:16:4a:08:c1:90:63:18:d6:ef:
                    32:ac:3e:d4:20:68:74:da:da:53:c9:84:4d:5e:8e:
                    3b:92:f2:d7:d1:c4:b9:1a:9c:73:38:0d:af:aa:22:
                    df:ef:4e:79:34:30:34:e2:6e:29:fc:d7:1c:89:3f:
                    98:a2:64:b4:52:10:9f:d4:29:c9:e2:9f:78:72:8e:
                    72:03:95:f0:d5:45:b8:88:25:b2:5e:92:a0:00:6a:
                    11:3e:de:57:af:47:95:e7:12:64:a2:22:0d:5c:3e:
                    84:7c:03:df:09:7e:c6:29:ff:09:93:f2:4d:2c:3a:
                    94:34:7f:b5:39:0c:18:92:eb:de:1c:e4:f6:ec:e7:
                    36:e4:f9:a1:b0:91:22:23:7c:59:6d:ad:c8:a1:b1:
                    21:4c:9a:b7:2f:6c:87:0b:59:5f:3c:7c:7f:78:36:
                    71:f2:e0:4f:01:20:55:de:93:1e:d2:1f:5a:3a:74:
                    52:6b
                Exponent: 65537 (0x10001)
        X509v3 extensions:
            X509v3 Subject Key Identifier: 
                27:18:BD:AD:35:C6:F5:19:CD:A4:1A:D2:98:E6:E8:A1:A9:B5:CF:EC
            X509v3 Authority Key Identifier: 
                keyid:64:04:6B:53:6C:01:60:57:A0:47:FA:CB:98:02:2D:6F:01:9A:10:C3

            X509v3 Basic Constraints: 
                CA:FALSE
            X509v3 Key Usage: 
                Digital Signature, Key Encipherment
            X509v3 Subject Alternative Name: 
                DNS:example.com, DNS:www.example.com, DNS:mail.example.com, DNS:ftp.example.com
            Netscape Comment: 
                OpenSSL Generated Certificate
    Signature Algorithm: sha256WithRSAEncryption
         86:66:04:c5:53:09:e3:12:ba:13:1b:7c:72:cc:23:11:af:4b:
         10:c0:1a:85:c8:5e:b8:2c:4d:4b:d4:0d:09:72:2e:0d:0f:a4:
         35:4f:5e:bf:0b:46:10:12:d9:44:90:69:c4:62:02:52:97:24:
         1c:9a:ff:74:81:a9:eb:e9:1c:61:0f:b5:aa:8c:7c:59:57:5c:
         91:f7:17:ce:4d:bf:1a:ee:36:c2:d5:4f:b1:14:7e:cf:a8:ff:
         32:d8:f4:40:58:0b:42:21:a0:5d:6b:6c:4e:88:6d:e4:c0:40:
         e4:e5:cf:e9:19:68:41:fc:84:4d:bf:01:a2:7e:fa:18:5a:7f:
         53:7e:30:b1:2d:5e:e9:9b:29:2b:fe:12:fe:52:cf:df:be:c6:
         c1:89:1c:56:a1:2c:02:e7:fa:8d:21:c0:22:ee:d3:71:80:4b:
         53:fb:a2:51:e7:cc:49:a0:c4:f3:5c:70:4f:6f:45:3b:4c:a4:
         4f:17:04:db:f8:2d:64:ff:d0:37:25:dd:27:02:7b:03:89:be:
         c9:d2:26:d9:6e:6d:b3:47:59:05:5e:87:22:0f:bb:eb:ab:f4:
         94:38:cb:bb:3f:da:e2:85:7c:c1:1a:c0:6a:ed:84:b0:c9:05:
         8d:32:3a:7f:cf:67:e3:4f:ed:8b:88:14:03:e2:f9:48:03:52:
         60:86:bd:16:ff:00:59:34:03:07:f8:fa:75:51:7a:e9:57:2d:
         e0:d9:b1:f0:0a:70:65:bf:13:53:0a:0e:84:82:44:2c:fc:4f:
         e1:d5:8c:57:d0:ce:a5:2e:af:51:da:d7:b7:67:cf:a4:fa:5e:
         94:57:53:95:87:ec:57:d2:88:ca:3f:91:87:24:8e:86:dc:26:
         9f:4a:0c:5d:93:a3:85:33:74:22:d9:05:db:40:f7:ce:dc:26:
         a2:cb:53:12:d8:87:c5:74:16:3d:40:af:1c:d6:bc:53:76:30:
         65:89:b0:83:43:1a:ae:32:d6:23:c6:45:05:39:ab:e0:39:28:
         ee:19:92:fa:32:6f:89:0e:83:38:1b:01:e0:7a:0a:ae:5b:8e:
         3b:53:c2:30:ad:e1:7e:db:af:eb:f0:3c:4f:61:d9:a7:2e:45:
         a2:06:f6:0b:e7:f3:c8:a3:b8:7d:5b:39:7a:2f:51:c0:15:f4:
         4a:dc:43:ac:b7:6c:c0:0c:05:ca:0d:9d:c2:cc:05:6e:d6:0c:
         00:ac:0b:d7:d6:59:e0:8f:b1:6e:d7:4e:4b:27:5b:34:01:16:
         53:35:4c:ad:fd:d1:14:f6:41:9a:c1:5b:1f:9f:c6:38:f2:d3:
         44:86:f1:9e:4c:01:14:36:dc:36:32:02:2b:8c:e6:2a:4c:69:
         ab:97:a2:2d:c8:f5:d9:1f
-----BEGIN CERTIFICATE-----
MIIFITCCAwmgAwIBAgIBATANBgkqhkiG9w0BAQsFADCBhzELMAkGA1UEBhMCSU4x
DjAMBgNVBAgMBURlbGhpMQ4wDAYDVQQHDAVEZWxoaTEOMAwGA1UECgwFSUlJVEQx
CzAJBgNVBAsMAk5TMREwDwYDVQQDDAhBbnNodW1hbjEoMCYGCSqGSIb3DQEJARYZ
YW5zaHVtYW4xNDAyMUBpaWl0ZC5hYy5pbjAeFw0xNjExMTkxNzM5MzlaFw0xOTA4
MTYxNzM5MzlaMEgxCzAJBgNVBAYTAklOMQ4wDAYDVQQIDAVEZWxoaTEMMAoGA1UE
BwwDTkNSMQ4wDAYDVQQKDAVJSUlURDELMAkGA1UEAwwCTlMwggEiMA0GCSqGSIb3
DQEBAQUAA4IBDwAwggEKAoIBAQC8b7eaB1clsd4oYlh8So8BoMdu377CC9YlUrn/
ZzKFttesOdNw5YXxmDOv4lhgjrLJC7nwzs3uJrVsb2zfLYrDXr7CFsbEMIb5fJ0t
SHogExZKCMGQYxjW7zKsPtQgaHTa2lPJhE1ejjuS8tfRxLkanHM4Da+qIt/vTnk0
MDTibin81xyJP5iiZLRSEJ/UKcnin3hyjnIDlfDVRbiIJbJekqAAahE+3levR5Xn
EmSiIg1cPoR8A98JfsYp/wmT8k0sOpQ0f7U5DBiS694c5Pbs5zbk+aGwkSIjfFlt
rcihsSFMmrcvbIcLWV88fH94NnHy4E8BIFXekx7SH1o6dFJrAgMBAAGjgdUwgdIw
HQYDVR0OBBYEFCcYva01xvUZzaQa0pjm6KGptc/sMB8GA1UdIwQYMBaAFGQEa1Ns
AWBXoEf6y5gCLW8BmhDDMAkGA1UdEwQCMAAwCwYDVR0PBAQDAgWgMEoGA1UdEQRD
MEGCC2V4YW1wbGUuY29tgg93d3cuZXhhbXBsZS5jb22CEG1haWwuZXhhbXBsZS5j
b22CD2Z0cC5leGFtcGxlLmNvbTAsBglghkgBhvhCAQ0EHxYdT3BlblNTTCBHZW5l
cmF0ZWQgQ2VydGlmaWNhdGUwDQYJKoZIhvcNAQELBQADggIBAIZmBMVTCeMSuhMb
fHLMIxGvSxDAGoXIXrgsTUvUDQlyLg0PpDVPXr8LRhAS2USQacRiAlKXJBya/3SB
qevpHGEPtaqMfFlXXJH3F85NvxruNsLVT7EUfs+o/zLY9EBYC0IhoF1rbE6IbeTA
QOTlz+kZaEH8hE2/AaJ++hhaf1N+MLEtXumbKSv+Ev5Sz9++xsGJHFahLALn+o0h
wCLu03GAS1P7olHnzEmgxPNccE9vRTtMpE8XBNv4LWT/0Dcl3ScCewOJvsnSJtlu
bbNHWQVehyIPu+ur9JQ4y7s/2uKFfMEawGrthLDJBY0yOn/PZ+NP7YuIFAPi+UgD
UmCGvRb/AFk0Awf4+nVReulXLeDZsfAKcGW/E1MKDoSCRCz8T+HVjFfQzqUur1Ha
17dnz6T6XpRXU5WH7FfSiMo/kYckjobcJp9KDF2To4UzdCLZBdtA987cJqLLUxLY
h8V0Fj1ArxzWvFN2MGWJsINDGq4y1iPGRQU5q+A5KO4Zkvoyb4kOgzgbAeB6Cq5b
jjtTwjCt4X7br+vwPE9h2acuRaIG9gvn88ijuH1bOXovUcAV9ErcQ6y3bMAMBcoN
ncLMBW7WDACsC9fWWeCPsW7XTksnWzQBFlM1TK390RT2QZrBWx+fxjjy00SG8Z5M
ARQ23DYyAiuM5ipMaauXoi3I9dkf
-----END CERTIFICATE-----
