Certificate:
    Data:
        Version: 3 (0x2)
        Serial Number: 4 (0x4)
    Signature Algorithm: sha256WithRSAEncryption
        Issuer: C=IN, ST=Delhi, L=Delhi, O=IIITD, OU=NS, CN=Anshuman/emailAddress=anshuman14021@iiitd.ac.in
        Validity
            Not Before: Nov 20 17:05:56 2016 GMT
            Not After : Aug 17 17:05:56 2019 GMT
        Subject: C=IN, ST=Delhi, L=NCR, O=IIITD, CN=NS
        Subject Public Key Info:
            Public Key Algorithm: rsaEncryption
                Public-Key: (2048 bit)
                Modulus:
                    00:c3:be:71:0a:d4:c9:01:9e:12:fb:a4:4f:4b:2a:
                    cd:8b:14:b0:c8:00:08:42:c0:e7:43:5d:ba:59:0a:
                    4c:66:89:2f:23:1f:fe:a5:ca:6b:81:02:eb:ba:4e:
                    3a:2e:a0:eb:4e:4d:4e:80:ef:f5:ab:a5:17:ab:cd:
                    74:59:86:11:d7:5b:3f:73:1b:44:cf:ea:ef:e0:e7:
                    76:51:cb:5b:14:b2:cd:05:42:0b:68:a0:32:45:62:
                    ab:00:61:d0:7e:0f:b5:9f:04:9c:99:d8:11:01:59:
                    f5:da:c8:a0:1c:2b:27:e4:68:d3:02:e4:e5:17:b5:
                    16:86:6d:b2:8b:77:b1:cb:3e:3c:62:90:de:fb:7d:
                    8a:2f:d1:92:36:0f:c6:6a:2b:91:0c:2a:7d:6c:1b:
                    3b:00:3e:3b:32:06:b0:d3:c5:b5:e0:d5:fd:1d:24:
                    bb:b3:97:89:ce:d4:0f:02:13:2a:95:77:8a:b9:73:
                    5e:06:49:71:cb:d4:8d:59:2a:44:64:4e:50:f8:57:
                    dc:c6:76:6a:95:ef:99:c7:d1:9a:05:29:a5:25:53:
                    63:68:6d:15:b6:8b:7a:12:74:de:8d:ab:02:16:c7:
                    df:b4:6c:19:e5:eb:31:cb:12:1e:3b:44:34:83:43:
                    8d:22:da:29:29:41:ff:7b:c4:d5:c8:78:08:40:53:
                    72:95
                Exponent: 65537 (0x10001)
        X509v3 extensions:
            X509v3 Subject Key Identifier: 
                D6:94:C1:76:59:37:B6:7E:AF:81:2A:2E:E7:95:7B:6E:70:F8:2F:C6
            X509v3 Authority Key Identifier: 
                keyid:64:04:6B:53:6C:01:60:57:A0:47:FA:CB:98:02:2D:6F:01:9A:10:C3

            X509v3 Basic Constraints: 
                CA:FALSE
            X509v3 Key Usage: 
                Digital Signature, Key Encipherment
            X509v3 Subject Alternative Name: 
                DNS:example.com, DNS:www.example.com, DNS:mail.example.com, DNS:ftp.example.com
            Netscape Comment: 
                OpenSSL Generated Certificate
    Signature Algorithm: sha256WithRSAEncryption
         89:78:da:3f:95:8a:af:45:bb:6d:df:9c:16:87:de:55:d9:36:
         be:85:fb:00:bc:34:4a:98:25:ed:be:0c:a4:a9:8c:e2:ad:13:
         a4:91:5c:01:d2:8b:c8:88:d2:fa:3d:c8:e3:68:02:07:86:6f:
         87:af:ea:d4:ac:38:ed:90:08:56:d2:1c:d7:21:87:39:31:95:
         60:99:6e:a8:6d:17:8a:8e:30:53:0e:e7:24:64:8a:74:2f:a7:
         2a:77:e2:a7:ed:70:65:ba:b4:d4:7b:86:2c:07:b9:4a:8f:62:
         69:a8:10:5e:be:cb:db:ab:22:d2:80:7f:6c:ec:d8:a3:8b:9c:
         a9:77:23:fd:76:fa:60:4a:6f:c6:34:ac:9e:4e:6a:45:2c:50:
         84:94:0f:ba:8b:a2:3e:6d:96:89:e4:c0:66:00:33:08:3a:11:
         1c:68:bc:3b:ef:2a:3e:b7:3d:2d:39:58:fd:5c:79:3a:2d:0e:
         36:51:e9:23:4f:a6:16:2b:2b:ff:64:43:3c:7e:c4:46:6f:03:
         74:31:e8:23:0a:ea:a8:21:e4:61:2f:64:09:be:41:07:04:85:
         3a:bb:81:ea:f4:54:95:e0:16:82:ba:03:b7:83:55:9d:fc:ab:
         f0:f4:6a:0d:72:48:f0:a5:b8:e3:f5:06:80:b3:2d:8e:1d:42:
         70:d9:4f:68:f7:2b:4e:d4:cc:83:58:8d:44:63:e4:38:1b:1c:
         57:56:43:6e:33:43:10:bd:0c:3f:7c:09:2f:4d:09:9b:16:b8:
         14:ab:88:87:8f:04:87:bc:f1:1a:d4:0a:10:ce:14:d5:ec:20:
         1f:a6:30:f9:80:42:af:80:31:ec:30:7a:2a:69:1e:c3:94:47:
         da:b3:a0:4d:9a:66:34:2b:29:42:99:7e:c6:7c:ca:30:de:9f:
         fa:f6:87:29:56:2a:6d:10:f1:84:76:ae:d0:39:a8:12:49:03:
         c7:c9:dd:3e:8b:ae:b7:40:c9:7d:4a:4f:72:32:29:bf:b1:08:
         8d:8d:39:87:4c:d3:bf:d4:f7:04:3d:c1:df:5f:f0:29:ce:57:
         6e:4b:5b:3c:d5:29:5a:31:f6:7d:98:4e:ad:9e:8f:42:8a:f4:
         80:4a:c5:7d:87:fd:ba:93:9d:36:8c:b4:7a:a7:97:af:48:e1:
         43:f7:72:01:89:5f:0a:c2:d7:6a:a7:17:11:34:c8:c0:05:8c:
         bd:0d:45:6e:f9:f6:0c:29:dd:62:20:b4:20:48:ed:33:01:2b:
         c5:47:39:05:e3:4b:fd:f3:0a:d4:c0:34:d4:6a:81:a1:ea:77:
         b3:12:67:d8:0c:d1:31:41:22:d9:60:54:dd:2b:49:44:b7:93:
         94:a0:fc:31:54:0e:2e:8e
-----BEGIN CERTIFICATE-----
MIIFITCCAwmgAwIBAgIBBDANBgkqhkiG9w0BAQsFADCBhzELMAkGA1UEBhMCSU4x
DjAMBgNVBAgMBURlbGhpMQ4wDAYDVQQHDAVEZWxoaTEOMAwGA1UECgwFSUlJVEQx
CzAJBgNVBAsMAk5TMREwDwYDVQQDDAhBbnNodW1hbjEoMCYGCSqGSIb3DQEJARYZ
YW5zaHVtYW4xNDAyMUBpaWl0ZC5hYy5pbjAeFw0xNjExMjAxNzA1NTZaFw0xOTA4
MTcxNzA1NTZaMEgxCzAJBgNVBAYTAklOMQ4wDAYDVQQIDAVEZWxoaTEMMAoGA1UE
BwwDTkNSMQ4wDAYDVQQKDAVJSUlURDELMAkGA1UEAwwCTlMwggEiMA0GCSqGSIb3
DQEBAQUAA4IBDwAwggEKAoIBAQDDvnEK1MkBnhL7pE9LKs2LFLDIAAhCwOdDXbpZ
CkxmiS8jH/6lymuBAuu6TjouoOtOTU6A7/WrpRerzXRZhhHXWz9zG0TP6u/g53ZR
y1sUss0FQgtooDJFYqsAYdB+D7WfBJyZ2BEBWfXayKAcKyfkaNMC5OUXtRaGbbKL
d7HLPjxikN77fYov0ZI2D8ZqK5EMKn1sGzsAPjsyBrDTxbXg1f0dJLuzl4nO1A8C
EyqVd4q5c14GSXHL1I1ZKkRkTlD4V9zGdmqV75nH0ZoFKaUlU2NobRW2i3oSdN6N
qwIWx9+0bBnl6zHLEh47RDSDQ40i2ikpQf97xNXIeAhAU3KVAgMBAAGjgdUwgdIw
HQYDVR0OBBYEFNaUwXZZN7Z+r4EqLueVe25w+C/GMB8GA1UdIwQYMBaAFGQEa1Ns
AWBXoEf6y5gCLW8BmhDDMAkGA1UdEwQCMAAwCwYDVR0PBAQDAgWgMEoGA1UdEQRD
MEGCC2V4YW1wbGUuY29tgg93d3cuZXhhbXBsZS5jb22CEG1haWwuZXhhbXBsZS5j
b22CD2Z0cC5leGFtcGxlLmNvbTAsBglghkgBhvhCAQ0EHxYdT3BlblNTTCBHZW5l
cmF0ZWQgQ2VydGlmaWNhdGUwDQYJKoZIhvcNAQELBQADggIBAIl42j+Viq9Fu23f
nBaH3lXZNr6F+wC8NEqYJe2+DKSpjOKtE6SRXAHSi8iI0vo9yONoAgeGb4ev6tSs
OO2QCFbSHNchhzkxlWCZbqhtF4qOMFMO5yRkinQvpyp34qftcGW6tNR7hiwHuUqP
YmmoEF6+y9urItKAf2zs2KOLnKl3I/12+mBKb8Y0rJ5OakUsUISUD7qLoj5tlonk
wGYAMwg6ERxovDvvKj63PS05WP1ceTotDjZR6SNPphYrK/9kQzx+xEZvA3Qx6CMK
6qgh5GEvZAm+QQcEhTq7ger0VJXgFoK6A7eDVZ38q/D0ag1ySPCluOP1BoCzLY4d
QnDZT2j3K07UzINYjURj5DgbHFdWQ24zQxC9DD98CS9NCZsWuBSriIePBIe88RrU
ChDOFNXsIB+mMPmAQq+AMewweippHsOUR9qzoE2aZjQrKUKZfsZ8yjDen/r2hylW
Km0Q8YR2rtA5qBJJA8fJ3T6LrrdAyX1KT3IyKb+xCI2NOYdM07/U9wQ9wd9f8CnO
V25LWzzVKVox9n2YTq2ej0KK9IBKxX2H/bqTnTaMtHqnl69I4UP3cgGJXwrC12qn
FxE0yMAFjL0NRW759gwp3WIgtCBI7TMBK8VHOQXjS/3zCtTANNRqgaHqd7MSZ9gM
0TFBItlgVN0rSUS3k5Sg/DFUDi6O
-----END CERTIFICATE-----
