Certificate:
    Data:
        Version: 3 (0x2)
        Serial Number: 5 (0x5)
    Signature Algorithm: sha256WithRSAEncryption
        Issuer: C=IN, ST=Delhi, L=Delhi, O=IIITD, OU=NS, CN=Anshuman/emailAddress=anshuman14021@iiitd.ac.in
        Validity
            Not Before: Nov 20 17:24:11 2016 GMT
            Not After : Aug 17 17:24:11 2019 GMT
        Subject: C=IN, ST=Delhi, L=NCR, O=IIITD, CN=NS
        Subject Public Key Info:
            Public Key Algorithm: rsaEncryption
                Public-Key: (2048 bit)
                Modulus:
                    00:e4:2c:43:3c:09:1b:58:27:b1:11:7c:93:01:05:
                    31:e9:97:9d:41:82:b5:8f:3c:4f:77:b6:42:ae:63:
                    f4:be:6d:03:82:20:95:fc:49:79:ee:88:9c:40:a3:
                    df:18:6e:8a:0a:54:ac:91:4d:63:8c:2b:02:c7:c5:
                    91:0c:52:d2:97:88:58:3c:37:cb:dc:e2:ab:2b:9e:
                    f2:a6:cf:c7:7a:de:d1:1b:fe:4a:8e:c7:aa:97:9e:
                    cc:87:52:31:2b:98:34:42:ee:1e:10:00:44:3d:a5:
                    80:a8:7d:df:30:72:7b:06:27:50:49:42:d9:de:93:
                    e3:e4:08:97:4a:bb:63:bb:f9:76:09:1f:7f:6b:64:
                    dd:24:2f:64:42:34:1d:56:2d:57:fb:7e:e1:4e:ab:
                    64:da:72:18:0f:18:8f:96:5b:39:21:43:aa:9d:de:
                    af:9d:cc:8b:3e:7f:ab:12:8e:16:4e:03:61:31:f8:
                    eb:13:ea:43:83:2f:ba:71:c3:42:2a:7a:f6:44:c7:
                    fd:2f:d5:2f:91:5d:2a:19:98:f8:6f:80:ee:4d:54:
                    eb:ec:6e:9b:76:7d:cd:8b:a4:57:1c:28:cf:d1:2a:
                    41:7b:8e:24:80:a4:36:26:62:0f:fe:ee:6f:9b:28:
                    10:e9:59:07:ee:bd:35:dd:c2:92:f4:24:f3:c8:42:
                    09:df
                Exponent: 65537 (0x10001)
        X509v3 extensions:
            X509v3 Subject Key Identifier: 
                DB:F2:F5:2E:45:C2:BC:09:91:85:6B:99:57:90:40:60:31:9F:82:79
            X509v3 Authority Key Identifier: 
                keyid:64:04:6B:53:6C:01:60:57:A0:47:FA:CB:98:02:2D:6F:01:9A:10:C3

            X509v3 Basic Constraints: 
                CA:FALSE
            X509v3 Key Usage: 
                Digital Signature, Key Encipherment
            X509v3 Subject Alternative Name: 
                DNS:example.com, DNS:www.example.com, DNS:mail.example.com, DNS:ftp.example.com
            Netscape Comment: 
                OpenSSL Generated Certificate
    Signature Algorithm: sha256WithRSAEncryption
         88:b2:30:4c:bc:6a:ac:9c:91:d0:4c:7e:1d:5a:01:f4:c1:bc:
         d2:df:3d:c0:f7:4e:c3:ce:1d:09:e1:a4:cb:76:bf:42:5e:ce:
         75:df:6f:12:b1:7b:e3:7b:01:cf:c5:5a:23:c4:47:8e:ff:5b:
         e1:6a:73:d1:e5:55:43:5a:22:81:df:ac:19:c9:b6:b0:17:7a:
         04:7f:44:02:b9:a0:74:aa:86:58:e9:c4:7e:3d:c3:83:e6:9f:
         96:e2:9a:ca:56:96:93:76:e8:9e:34:b7:63:a2:ca:c7:54:9d:
         98:fa:d1:5a:fd:35:f7:ef:24:7a:45:0f:fb:b0:8f:79:57:e4:
         7f:d9:7d:fa:aa:89:0a:09:7c:df:30:af:4a:ec:fd:8e:da:bd:
         81:02:62:a3:0a:64:f6:38:d1:29:dc:06:99:a1:ba:2b:f9:fb:
         0d:6a:3b:06:8d:ff:73:93:b4:48:02:a0:36:96:6a:2b:61:15:
         bc:df:eb:57:49:9f:a4:6a:3b:21:b1:b2:63:16:a6:30:b6:26:
         21:30:66:c9:df:b8:80:e0:63:40:ad:ca:38:8b:f9:16:00:d5:
         f1:b7:d9:8b:61:44:9b:01:1b:be:d8:13:83:11:75:bb:fb:c5:
         1c:a0:d6:2f:77:3b:db:69:bf:83:4a:1f:1e:c2:8c:60:e3:99:
         1b:ef:8c:bc:c9:03:37:0e:79:af:16:12:3b:f9:dc:b9:43:d2:
         70:8b:8e:06:16:bd:5c:8c:6e:09:2f:d5:ec:b6:79:57:44:42:
         81:13:d3:7a:3d:35:1a:fa:2a:60:fd:df:30:b4:4e:4c:58:38:
         dd:a0:5f:e5:24:92:ca:4d:98:2e:1a:c0:fb:f2:54:4c:b8:4a:
         9c:f8:8c:5f:f7:e8:36:07:c3:5a:16:64:a5:0b:76:11:40:aa:
         df:80:64:cf:da:64:12:f9:ac:9b:28:a6:8a:df:08:40:27:06:
         34:6d:7d:be:49:eb:da:40:27:c6:b3:d8:fd:3e:a9:01:f7:85:
         fe:42:eb:14:4f:42:54:84:d7:b2:9f:78:59:63:8e:90:52:0a:
         fb:5c:25:aa:8d:0d:b7:e5:16:a0:89:4e:c8:7f:bf:53:82:89:
         92:d7:32:a9:0c:87:30:e9:0c:c4:ef:c4:ec:8c:94:76:4e:fa:
         d0:c7:2b:f0:90:b7:1f:e8:db:0e:0e:10:86:9f:a8:78:a2:02:
         3c:b9:51:2b:a0:e8:94:96:27:b3:5a:8a:23:5c:9b:f2:3d:e4:
         85:08:5a:f2:49:9c:f4:31:84:22:e2:55:00:a9:46:36:3b:ba:
         1a:90:4f:82:28:ac:6a:8a:c1:15:5f:c4:69:5f:ed:b0:bb:b6:
         5d:13:24:1d:3a:f0:1e:44
-----BEGIN CERTIFICATE-----
MIIFITCCAwmgAwIBAgIBBTANBgkqhkiG9w0BAQsFADCBhzELMAkGA1UEBhMCSU4x
DjAMBgNVBAgMBURlbGhpMQ4wDAYDVQQHDAVEZWxoaTEOMAwGA1UECgwFSUlJVEQx
CzAJBgNVBAsMAk5TMREwDwYDVQQDDAhBbnNodW1hbjEoMCYGCSqGSIb3DQEJARYZ
YW5zaHVtYW4xNDAyMUBpaWl0ZC5hYy5pbjAeFw0xNjExMjAxNzI0MTFaFw0xOTA4
MTcxNzI0MTFaMEgxCzAJBgNVBAYTAklOMQ4wDAYDVQQIDAVEZWxoaTEMMAoGA1UE
BwwDTkNSMQ4wDAYDVQQKDAVJSUlURDELMAkGA1UEAwwCTlMwggEiMA0GCSqGSIb3
DQEBAQUAA4IBDwAwggEKAoIBAQDkLEM8CRtYJ7ERfJMBBTHpl51BgrWPPE93tkKu
Y/S+bQOCIJX8SXnuiJxAo98YbooKVKyRTWOMKwLHxZEMUtKXiFg8N8vc4qsrnvKm
z8d63tEb/kqOx6qXnsyHUjErmDRC7h4QAEQ9pYCofd8wcnsGJ1BJQtnek+PkCJdK
u2O7+XYJH39rZN0kL2RCNB1WLVf7fuFOq2TachgPGI+WWzkhQ6qd3q+dzIs+f6sS
jhZOA2Ex+OsT6kODL7pxw0IqevZEx/0v1S+RXSoZmPhvgO5NVOvsbpt2fc2LpFcc
KM/RKkF7jiSApDYmYg/+7m+bKBDpWQfuvTXdwpL0JPPIQgnfAgMBAAGjgdUwgdIw
HQYDVR0OBBYEFNvy9S5FwrwJkYVrmVeQQGAxn4J5MB8GA1UdIwQYMBaAFGQEa1Ns
AWBXoEf6y5gCLW8BmhDDMAkGA1UdEwQCMAAwCwYDVR0PBAQDAgWgMEoGA1UdEQRD
MEGCC2V4YW1wbGUuY29tgg93d3cuZXhhbXBsZS5jb22CEG1haWwuZXhhbXBsZS5j
b22CD2Z0cC5leGFtcGxlLmNvbTAsBglghkgBhvhCAQ0EHxYdT3BlblNTTCBHZW5l
cmF0ZWQgQ2VydGlmaWNhdGUwDQYJKoZIhvcNAQELBQADggIBAIiyMEy8aqyckdBM
fh1aAfTBvNLfPcD3TsPOHQnhpMt2v0JeznXfbxKxe+N7Ac/FWiPER47/W+Fqc9Hl
VUNaIoHfrBnJtrAXegR/RAK5oHSqhljpxH49w4Pmn5bimspWlpN26J40t2OiysdU
nZj60Vr9NffvJHpFD/uwj3lX5H/ZffqqiQoJfN8wr0rs/Y7avYECYqMKZPY40Snc
Bpmhuiv5+w1qOwaN/3OTtEgCoDaWaithFbzf61dJn6RqOyGxsmMWpjC2JiEwZsnf
uIDgY0CtyjiL+RYA1fG32YthRJsBG77YE4MRdbv7xRyg1i93O9tpv4NKHx7CjGDj
mRvvjLzJAzcOea8WEjv53LlD0nCLjgYWvVyMbgkv1ey2eVdEQoET03o9NRr6KmD9
3zC0TkxYON2gX+UkkspNmC4awPvyVEy4Spz4jF/36DYHw1oWZKULdhFAqt+AZM/a
ZBL5rJsoporfCEAnBjRtfb5J69pAJ8az2P0+qQH3hf5C6xRPQlSE17KfeFljjpBS
CvtcJaqNDbflFqCJTsh/v1OCiZLXMqkMhzDpDMTvxOyMlHZO+tDHK/CQtx/o2w4O
EIafqHiiAjy5USug6JSWJ7NaiiNcm/I95IUIWvJJnPQxhCLiVQCpRjY7uhqQT4Io
rGqKwRVfxGlf7bC7tl0TJB068B5E
-----END CERTIFICATE-----
