Certificate:
    Data:
        Version: 3 (0x2)
        Serial Number: 6 (0x6)
    Signature Algorithm: sha256WithRSAEncryption
        Issuer: C=IN, ST=Delhi, L=Delhi, O=IIITD, OU=NS, CN=Anshuman/emailAddress=anshuman14021@iiitd.ac.in
        Validity
            Not Before: Nov 20 17:30:41 2016 GMT
            Not After : Aug 17 17:30:41 2019 GMT
        Subject: C=IN, ST=Delhi, L=NCR, O=IIITD, CN=NS
        Subject Public Key Info:
            Public Key Algorithm: rsaEncryption
                Public-Key: (2048 bit)
                Modulus:
                    00:cd:34:59:69:e9:95:d4:01:05:57:7f:a9:6e:1d:
                    23:55:c7:81:33:52:11:cb:68:72:e6:50:24:33:ee:
                    ee:7a:4d:2e:68:62:9d:7b:a1:1c:96:73:7f:73:3e:
                    31:b0:4b:e5:2f:b8:54:de:d5:79:82:e4:7d:04:a4:
                    fd:48:c9:41:e4:79:37:47:d7:11:fe:28:1c:2d:9e:
                    90:9f:79:9c:d0:d5:db:cb:dc:6e:5e:55:3b:6d:9c:
                    40:fe:e1:80:93:87:75:7d:f4:71:b9:7d:99:99:07:
                    bb:75:79:a6:e0:0d:84:2e:ac:83:df:e2:d9:37:bd:
                    2c:9f:fa:7a:37:66:0a:d1:5c:2e:fb:a4:ef:5f:15:
                    9c:35:a8:53:00:7c:e1:27:ce:7a:c5:a9:88:ed:f6:
                    23:37:52:0b:0b:51:61:87:54:28:92:20:8a:73:b1:
                    78:3a:8e:df:0a:7b:f6:10:02:95:ed:97:38:66:c5:
                    15:93:84:c2:36:c0:b4:98:ea:0a:d8:06:e3:97:27:
                    97:28:6f:65:1e:35:5d:a8:77:9f:d6:8f:94:17:34:
                    4a:2c:4c:b9:12:a5:5d:cc:5c:bc:09:0b:3c:36:db:
                    f2:2e:16:a5:5b:99:4c:e3:98:b8:00:94:12:f1:cc:
                    a8:ca:67:e6:c3:42:6b:55:2c:0b:23:ad:1b:e8:8f:
                    2d:b5
                Exponent: 65537 (0x10001)
        X509v3 extensions:
            X509v3 Subject Key Identifier: 
                2E:E4:31:49:BA:69:B7:01:74:D0:09:79:85:DD:F2:C5:7F:EC:76:5A
            X509v3 Authority Key Identifier: 
                keyid:64:04:6B:53:6C:01:60:57:A0:47:FA:CB:98:02:2D:6F:01:9A:10:C3

            X509v3 Basic Constraints: 
                CA:FALSE
            X509v3 Key Usage: 
                Digital Signature, Key Encipherment
            X509v3 Subject Alternative Name: 
                DNS:example.com, DNS:www.example.com, DNS:mail.example.com, DNS:ftp.example.com
            Netscape Comment: 
                OpenSSL Generated Certificate
    Signature Algorithm: sha256WithRSAEncryption
         2b:a6:7e:9e:f0:56:cb:55:44:6f:06:7c:b3:4c:d4:44:23:80:
         9e:6f:7d:ee:21:8a:14:57:8a:24:e6:4d:fb:9d:f1:b7:81:d3:
         8a:20:b2:33:3c:c4:69:af:30:23:63:4b:e8:d6:7f:27:5b:4a:
         7f:54:9b:56:02:62:87:00:ac:28:16:4d:b8:5a:ae:56:7e:0a:
         e6:0e:e1:89:2a:b0:64:8d:74:dd:d1:f1:25:63:de:35:4b:76:
         e3:73:f4:88:6b:ad:e3:a4:42:de:d0:29:9f:7d:79:39:b7:c3:
         64:cf:40:37:19:9d:46:0b:13:96:ce:cb:f7:d3:25:32:0c:60:
         79:f9:1a:2f:19:db:3b:4c:fb:19:aa:54:74:a8:e7:62:fe:56:
         f6:78:d8:52:f2:cd:f5:c3:34:e9:90:5d:e9:22:43:d0:fd:5d:
         9b:03:f2:c9:fe:99:81:9a:a1:65:b3:db:f6:0a:b9:a1:20:4b:
         38:98:fe:67:0f:81:f8:5d:15:3a:ac:07:aa:d0:ac:a3:61:cc:
         12:4a:80:0e:63:a7:16:ba:89:ca:d8:f6:07:a6:d3:ea:24:85:
         17:c7:fc:65:ef:32:44:c4:dc:3c:73:e1:22:01:69:6d:7f:c8:
         df:01:0b:0a:27:cb:c3:ce:78:05:bd:47:ee:22:0a:37:2a:93:
         09:c7:18:bf:18:86:37:2b:d2:c1:13:38:b4:30:71:b0:93:e7:
         e2:c0:80:c0:c6:f9:25:0c:65:5d:f7:e8:26:90:fa:8c:b2:f0:
         e4:d9:7d:d6:80:69:d8:ba:dc:f3:5f:74:3f:af:fb:04:3b:de:
         7a:5b:7d:9e:67:06:75:0b:e6:16:c5:3e:54:b7:1c:48:e2:ba:
         b8:68:20:1e:d6:5f:5c:6e:8b:70:4a:32:7c:da:58:50:c4:4b:
         87:9c:ea:49:ad:a9:61:35:93:cf:2d:0f:e7:2c:6f:d3:5c:9d:
         0b:b3:ac:8f:b3:a2:22:7e:b1:a5:d5:84:ec:2d:1c:e3:1c:67:
         ed:a9:bd:b3:7d:be:1f:9a:b5:a5:3c:d9:d4:8a:bc:22:7e:c5:
         08:79:95:7a:42:c7:d8:e8:7a:27:10:79:f8:76:3e:51:38:f9:
         34:0e:e6:3d:e5:eb:c3:dd:27:1e:cf:17:df:f1:d6:6a:fe:5a:
         8e:c4:19:17:ee:5e:86:7f:65:42:8b:26:4f:f9:05:5b:67:62:
         5f:6f:16:1b:97:af:c4:ad:c0:29:4e:00:e9:e8:81:c9:45:9c:
         cd:86:3d:c2:23:a7:01:4a:92:a9:d4:18:77:0a:52:66:37:f6:
         e5:f5:06:61:bf:8d:b0:9a:42:b9:92:15:1b:c5:46:85:ef:2e:
         a2:29:74:2a:09:95:db:c6
-----BEGIN CERTIFICATE-----
MIIFITCCAwmgAwIBAgIBBjANBgkqhkiG9w0BAQsFADCBhzELMAkGA1UEBhMCSU4x
DjAMBgNVBAgMBURlbGhpMQ4wDAYDVQQHDAVEZWxoaTEOMAwGA1UECgwFSUlJVEQx
CzAJBgNVBAsMAk5TMREwDwYDVQQDDAhBbnNodW1hbjEoMCYGCSqGSIb3DQEJARYZ
YW5zaHVtYW4xNDAyMUBpaWl0ZC5hYy5pbjAeFw0xNjExMjAxNzMwNDFaFw0xOTA4
MTcxNzMwNDFaMEgxCzAJBgNVBAYTAklOMQ4wDAYDVQQIDAVEZWxoaTEMMAoGA1UE
BwwDTkNSMQ4wDAYDVQQKDAVJSUlURDELMAkGA1UEAwwCTlMwggEiMA0GCSqGSIb3
DQEBAQUAA4IBDwAwggEKAoIBAQDNNFlp6ZXUAQVXf6luHSNVx4EzUhHLaHLmUCQz
7u56TS5oYp17oRyWc39zPjGwS+UvuFTe1XmC5H0EpP1IyUHkeTdH1xH+KBwtnpCf
eZzQ1dvL3G5eVTttnED+4YCTh3V99HG5fZmZB7t1eabgDYQurIPf4tk3vSyf+no3
ZgrRXC77pO9fFZw1qFMAfOEnznrFqYjt9iM3UgsLUWGHVCiSIIpzsXg6jt8Ke/YQ
ApXtlzhmxRWThMI2wLSY6grYBuOXJ5cob2UeNV2od5/Wj5QXNEosTLkSpV3MXLwJ
Czw22/IuFqVbmUzjmLgAlBLxzKjKZ+bDQmtVLAsjrRvojy21AgMBAAGjgdUwgdIw
HQYDVR0OBBYEFC7kMUm6abcBdNAJeYXd8sV/7HZaMB8GA1UdIwQYMBaAFGQEa1Ns
AWBXoEf6y5gCLW8BmhDDMAkGA1UdEwQCMAAwCwYDVR0PBAQDAgWgMEoGA1UdEQRD
MEGCC2V4YW1wbGUuY29tgg93d3cuZXhhbXBsZS5jb22CEG1haWwuZXhhbXBsZS5j
b22CD2Z0cC5leGFtcGxlLmNvbTAsBglghkgBhvhCAQ0EHxYdT3BlblNTTCBHZW5l
cmF0ZWQgQ2VydGlmaWNhdGUwDQYJKoZIhvcNAQELBQADggIBACumfp7wVstVRG8G
fLNM1EQjgJ5vfe4hihRXiiTmTfud8beB04ogsjM8xGmvMCNjS+jWfydbSn9Um1YC
YocArCgWTbharlZ+CuYO4YkqsGSNdN3R8SVj3jVLduNz9IhrreOkQt7QKZ99eTm3
w2TPQDcZnUYLE5bOy/fTJTIMYHn5Gi8Z2ztM+xmqVHSo52L+VvZ42FLyzfXDNOmQ
XekiQ9D9XZsD8sn+mYGaoWWz2/YKuaEgSziY/mcPgfhdFTqsB6rQrKNhzBJKgA5j
pxa6icrY9gem0+okhRfH/GXvMkTE3Dxz4SIBaW1/yN8BCwony8POeAW9R+4iCjcq
kwnHGL8Yhjcr0sETOLQwcbCT5+LAgMDG+SUMZV336CaQ+oyy8OTZfdaAadi63PNf
dD+v+wQ73npbfZ5nBnUL5hbFPlS3HEjiurhoIB7WX1xui3BKMnzaWFDES4ec6kmt
qWE1k88tD+csb9NcnQuzrI+zoiJ+saXVhOwtHOMcZ+2pvbN9vh+ataU82dSKvCJ+
xQh5lXpCx9joeicQefh2PlE4+TQO5j3l68PdJx7PF9/x1mr+Wo7EGRfuXoZ/ZUKL
Jk/5BVtnYl9vFhuXr8StwClOAOnogclFnM2GPcIjpwFKkqnUGHcKUmY39uX1BmG/
jbCaQrmSFRvFRoXvLqIpdCoJldvG
-----END CERTIFICATE-----
