Certificate:
    Data:
        Version: 3 (0x2)
        Serial Number: 7 (0x7)
    Signature Algorithm: sha256WithRSAEncryption
        Issuer: C=IN, ST=Delhi, L=Delhi, O=IIITD, OU=NS, CN=Anshuman/emailAddress=anshuman14021@iiitd.ac.in
        Validity
            Not Before: Nov 20 17:32:32 2016 GMT
            Not After : Aug 17 17:32:32 2019 GMT
        Subject: C=IN, ST=Delhi, L=NCR, O=IIITD, CN=NS
        Subject Public Key Info:
            Public Key Algorithm: rsaEncryption
                Public-Key: (2048 bit)
                Modulus:
                    00:cd:34:59:69:e9:95:d4:01:05:57:7f:a9:6e:1d:
                    23:55:c7:81:33:52:11:cb:68:72:e6:50:24:33:ee:
                    ee:7a:4d:2e:68:62:9d:7b:a1:1c:96:73:7f:73:3e:
                    31:b0:4b:e5:2f:b8:54:de:d5:79:82:e4:7d:04:a4:
                    fd:48:c9:41:e4:79:37:47:d7:11:fe:28:1c:2d:9e:
                    90:9f:79:9c:d0:d5:db:cb:dc:6e:5e:55:3b:6d:9c:
                    40:fe:e1:80:93:87:75:7d:f4:71:b9:7d:99:99:07:
                    bb:75:79:a6:e0:0d:84:2e:ac:83:df:e2:d9:37:bd:
                    2c:9f:fa:7a:37:66:0a:d1:5c:2e:fb:a4:ef:5f:15:
                    9c:35:a8:53:00:7c:e1:27:ce:7a:c5:a9:88:ed:f6:
                    23:37:52:0b:0b:51:61:87:54:28:92:20:8a:73:b1:
                    78:3a:8e:df:0a:7b:f6:10:02:95:ed:97:38:66:c5:
                    15:93:84:c2:36:c0:b4:98:ea:0a:d8:06:e3:97:27:
                    97:28:6f:65:1e:35:5d:a8:77:9f:d6:8f:94:17:34:
                    4a:2c:4c:b9:12:a5:5d:cc:5c:bc:09:0b:3c:36:db:
                    f2:2e:16:a5:5b:99:4c:e3:98:b8:00:94:12:f1:cc:
                    a8:ca:67:e6:c3:42:6b:55:2c:0b:23:ad:1b:e8:8f:
                    2d:b5
                Exponent: 65537 (0x10001)
        X509v3 extensions:
            X509v3 Subject Key Identifier: 
                2E:E4:31:49:BA:69:B7:01:74:D0:09:79:85:DD:F2:C5:7F:EC:76:5A
            X509v3 Authority Key Identifier: 
                keyid:64:04:6B:53:6C:01:60:57:A0:47:FA:CB:98:02:2D:6F:01:9A:10:C3

            X509v3 Basic Constraints: 
                CA:FALSE
            X509v3 Key Usage: 
                Digital Signature, Key Encipherment
            X509v3 Subject Alternative Name: 
                DNS:example.com, DNS:www.example.com, DNS:mail.example.com, DNS:ftp.example.com
            Netscape Comment: 
                OpenSSL Generated Certificate
    Signature Algorithm: sha256WithRSAEncryption
         4d:ae:e1:b7:dd:ba:6b:81:aa:97:b8:a5:b0:b8:1a:b0:2b:12:
         b4:7c:ff:da:10:4e:e6:03:b0:42:73:59:d5:06:ea:04:a2:7c:
         29:e3:c7:e0:67:5b:f2:54:39:00:f1:76:fd:dc:cf:b6:11:cd:
         a5:f0:c5:ff:71:dd:4e:7f:ff:05:1a:9b:dd:a3:bd:bd:b8:e5:
         00:eb:63:6a:f4:da:d1:97:cf:4c:bf:7d:d1:6d:5e:6f:4e:b9:
         86:45:c1:82:8a:af:ad:45:69:fd:20:f3:37:90:c9:6d:2b:95:
         d2:a9:e1:4d:f3:30:e0:43:94:61:b2:7f:3d:b1:5f:e8:fb:7d:
         5b:3c:b6:ff:35:c0:7d:a0:cb:1f:26:ac:f1:78:4c:18:c9:d9:
         8a:3c:69:43:2d:71:f5:7b:88:33:4b:ff:d5:fc:51:1b:41:9e:
         c9:5d:22:d7:35:2c:18:c1:89:d0:9d:bc:28:d3:1a:46:75:48:
         7a:f2:0f:b0:63:d2:28:72:6a:42:ce:b5:32:32:f7:58:3f:fa:
         92:a7:b2:af:af:88:bf:47:14:3e:f2:c9:ce:a8:46:aa:3b:92:
         02:bd:99:2a:54:b8:3f:23:08:b1:7b:6b:8c:dc:fa:25:d1:26:
         85:10:1a:4f:ae:7b:c6:52:43:23:dd:99:3a:c4:91:70:05:bf:
         3b:11:54:14:27:18:95:93:32:db:ef:af:98:91:60:fc:8e:30:
         df:20:65:51:23:16:82:ae:9d:56:f2:25:67:26:f9:a3:03:f6:
         17:be:ea:9c:94:c6:ba:4d:f6:0d:12:44:e5:f9:14:2a:c1:57:
         fc:1d:9d:ac:cb:58:c5:3b:a1:bf:3c:74:cb:e2:bd:4c:5b:1d:
         12:7d:df:5d:f0:b4:f3:a6:8a:1b:fe:b0:85:41:68:0e:ec:0d:
         47:13:ad:23:fb:db:59:52:81:18:c6:68:a4:f8:bb:8d:14:e0:
         27:bf:0c:0b:30:55:de:d9:11:ae:1d:4c:a7:88:a0:54:4e:f8:
         56:ce:49:08:94:35:2d:8e:eb:59:fd:e9:08:29:b5:e5:44:59:
         08:e8:cf:19:ef:b8:22:d8:9a:43:df:ba:5b:04:78:08:ff:d9:
         9b:bb:24:2e:0a:a7:36:29:ff:28:9f:c5:a6:44:36:6d:23:a7:
         4d:09:ac:3f:57:0e:41:f6:f8:e4:d0:b5:06:da:1e:e6:08:d9:
         15:99:f8:30:9b:2a:0a:02:04:ff:1e:0a:b9:f4:b8:90:d8:13:
         f0:88:ce:c2:48:4e:b0:fc:93:f6:3f:92:82:54:3f:a2:6e:0e:
         30:a6:c8:4f:53:ba:33:be:de:98:56:2c:2c:74:5e:88:e6:9d:
         01:ad:77:d4:5d:5d:a7:4a
-----BEGIN CERTIFICATE-----
MIIFITCCAwmgAwIBAgIBBzANBgkqhkiG9w0BAQsFADCBhzELMAkGA1UEBhMCSU4x
DjAMBgNVBAgMBURlbGhpMQ4wDAYDVQQHDAVEZWxoaTEOMAwGA1UECgwFSUlJVEQx
CzAJBgNVBAsMAk5TMREwDwYDVQQDDAhBbnNodW1hbjEoMCYGCSqGSIb3DQEJARYZ
YW5zaHVtYW4xNDAyMUBpaWl0ZC5hYy5pbjAeFw0xNjExMjAxNzMyMzJaFw0xOTA4
MTcxNzMyMzJaMEgxCzAJBgNVBAYTAklOMQ4wDAYDVQQIDAVEZWxoaTEMMAoGA1UE
BwwDTkNSMQ4wDAYDVQQKDAVJSUlURDELMAkGA1UEAwwCTlMwggEiMA0GCSqGSIb3
DQEBAQUAA4IBDwAwggEKAoIBAQDNNFlp6ZXUAQVXf6luHSNVx4EzUhHLaHLmUCQz
7u56TS5oYp17oRyWc39zPjGwS+UvuFTe1XmC5H0EpP1IyUHkeTdH1xH+KBwtnpCf
eZzQ1dvL3G5eVTttnED+4YCTh3V99HG5fZmZB7t1eabgDYQurIPf4tk3vSyf+no3
ZgrRXC77pO9fFZw1qFMAfOEnznrFqYjt9iM3UgsLUWGHVCiSIIpzsXg6jt8Ke/YQ
ApXtlzhmxRWThMI2wLSY6grYBuOXJ5cob2UeNV2od5/Wj5QXNEosTLkSpV3MXLwJ
Czw22/IuFqVbmUzjmLgAlBLxzKjKZ+bDQmtVLAsjrRvojy21AgMBAAGjgdUwgdIw
HQYDVR0OBBYEFC7kMUm6abcBdNAJeYXd8sV/7HZaMB8GA1UdIwQYMBaAFGQEa1Ns
AWBXoEf6y5gCLW8BmhDDMAkGA1UdEwQCMAAwCwYDVR0PBAQDAgWgMEoGA1UdEQRD
MEGCC2V4YW1wbGUuY29tgg93d3cuZXhhbXBsZS5jb22CEG1haWwuZXhhbXBsZS5j
b22CD2Z0cC5leGFtcGxlLmNvbTAsBglghkgBhvhCAQ0EHxYdT3BlblNTTCBHZW5l
cmF0ZWQgQ2VydGlmaWNhdGUwDQYJKoZIhvcNAQELBQADggIBAE2u4bfdumuBqpe4
pbC4GrArErR8/9oQTuYDsEJzWdUG6gSifCnjx+BnW/JUOQDxdv3cz7YRzaXwxf9x
3U5//wUam92jvb245QDrY2r02tGXz0y/fdFtXm9OuYZFwYKKr61Faf0g8zeQyW0r
ldKp4U3zMOBDlGGyfz2xX+j7fVs8tv81wH2gyx8mrPF4TBjJ2Yo8aUMtcfV7iDNL
/9X8URtBnsldItc1LBjBidCdvCjTGkZ1SHryD7Bj0ihyakLOtTIy91g/+pKnsq+v
iL9HFD7yyc6oRqo7kgK9mSpUuD8jCLF7a4zc+iXRJoUQGk+ue8ZSQyPdmTrEkXAF
vzsRVBQnGJWTMtvvr5iRYPyOMN8gZVEjFoKunVbyJWcm+aMD9he+6pyUxrpN9g0S
ROX5FCrBV/wdnazLWMU7ob88dMvivUxbHRJ9313wtPOmihv+sIVBaA7sDUcTrSP7
21lSgRjGaKT4u40U4Ce/DAswVd7ZEa4dTKeIoFRO+FbOSQiUNS2O61n96QgpteVE
WQjozxnvuCLYmkPfulsEeAj/2Zu7JC4KpzYp/yifxaZENm0jp00JrD9XDkH2+OTQ
tQbaHuYI2RWZ+DCbKgoCBP8eCrn0uJDYE/CIzsJITrD8k/Y/koJUP6JuDjCmyE9T
ujO+3phWLCx0XojmnQGtd9RdXadK
-----END CERTIFICATE-----
