Certificate:
    Data:
        Version: 3 (0x2)
        Serial Number: 8 (0x8)
    Signature Algorithm: sha256WithRSAEncryption
        Issuer: C=IN, ST=Delhi, L=Delhi, O=IIITD, OU=NS, CN=Anshuman/emailAddress=anshuman14021@iiitd.ac.in
        Validity
            Not Before: Nov 20 17:32:40 2016 GMT
            Not After : Aug 17 17:32:40 2019 GMT
        Subject: C=IN, ST=Delhi, L=NCR, O=IIITD, CN=NS
        Subject Public Key Info:
            Public Key Algorithm: rsaEncryption
                Public-Key: (2048 bit)
                Modulus:
                    00:cd:34:59:69:e9:95:d4:01:05:57:7f:a9:6e:1d:
                    23:55:c7:81:33:52:11:cb:68:72:e6:50:24:33:ee:
                    ee:7a:4d:2e:68:62:9d:7b:a1:1c:96:73:7f:73:3e:
                    31:b0:4b:e5:2f:b8:54:de:d5:79:82:e4:7d:04:a4:
                    fd:48:c9:41:e4:79:37:47:d7:11:fe:28:1c:2d:9e:
                    90:9f:79:9c:d0:d5:db:cb:dc:6e:5e:55:3b:6d:9c:
                    40:fe:e1:80:93:87:75:7d:f4:71:b9:7d:99:99:07:
                    bb:75:79:a6:e0:0d:84:2e:ac:83:df:e2:d9:37:bd:
                    2c:9f:fa:7a:37:66:0a:d1:5c:2e:fb:a4:ef:5f:15:
                    9c:35:a8:53:00:7c:e1:27:ce:7a:c5:a9:88:ed:f6:
                    23:37:52:0b:0b:51:61:87:54:28:92:20:8a:73:b1:
                    78:3a:8e:df:0a:7b:f6:10:02:95:ed:97:38:66:c5:
                    15:93:84:c2:36:c0:b4:98:ea:0a:d8:06:e3:97:27:
                    97:28:6f:65:1e:35:5d:a8:77:9f:d6:8f:94:17:34:
                    4a:2c:4c:b9:12:a5:5d:cc:5c:bc:09:0b:3c:36:db:
                    f2:2e:16:a5:5b:99:4c:e3:98:b8:00:94:12:f1:cc:
                    a8:ca:67:e6:c3:42:6b:55:2c:0b:23:ad:1b:e8:8f:
                    2d:b5
                Exponent: 65537 (0x10001)
        X509v3 extensions:
            X509v3 Subject Key Identifier: 
                2E:E4:31:49:BA:69:B7:01:74:D0:09:79:85:DD:F2:C5:7F:EC:76:5A
            X509v3 Authority Key Identifier: 
                keyid:64:04:6B:53:6C:01:60:57:A0:47:FA:CB:98:02:2D:6F:01:9A:10:C3

            X509v3 Basic Constraints: 
                CA:FALSE
            X509v3 Key Usage: 
                Digital Signature, Key Encipherment
            X509v3 Subject Alternative Name: 
                DNS:example.com, DNS:www.example.com, DNS:mail.example.com, DNS:ftp.example.com
            Netscape Comment: 
                OpenSSL Generated Certificate
    Signature Algorithm: sha256WithRSAEncryption
         78:94:93:25:1a:96:56:63:ee:39:f6:cf:2f:38:9e:ad:77:c8:
         52:76:92:22:ba:02:ba:5d:e3:83:76:89:b3:3e:c6:d0:98:58:
         3c:0b:e9:08:2d:2f:e8:4f:1c:1a:56:b6:56:ae:4d:a7:f8:60:
         f4:7b:13:23:aa:42:89:23:04:85:ce:ac:6b:fc:c9:82:b3:42:
         cf:e5:48:0f:d2:47:7d:1c:a5:75:4b:b0:59:4f:2d:7d:47:07:
         fe:52:3d:20:3d:a2:55:55:b2:e3:38:12:84:8b:f4:0b:7a:b5:
         ce:81:40:70:4d:3d:61:14:66:20:eb:ef:8f:80:7f:be:51:f4:
         b8:e1:e7:42:7d:3d:b4:79:72:34:da:b5:ca:b8:05:71:18:c2:
         32:62:28:64:95:a8:a8:46:24:0a:65:77:f6:87:50:4d:dd:e4:
         8b:5c:4a:3c:db:1b:16:a0:61:80:70:38:5a:4c:e9:a9:29:e8:
         c6:02:ca:d5:8f:4c:c3:a8:96:04:d8:3c:b6:b2:96:cc:38:92:
         29:b8:b0:7b:4a:e7:af:17:c8:51:57:e2:be:16:3a:c1:4b:70:
         39:04:09:60:5f:8b:59:27:4a:29:ea:96:65:fb:8a:0e:c0:ea:
         de:3b:f3:c4:d9:f2:8e:91:46:80:4a:05:72:38:57:52:c7:3e:
         93:6a:06:c4:94:ac:a4:6d:9a:b2:ab:ce:3e:62:99:74:76:7d:
         dd:f6:a5:bd:a8:b1:e8:03:41:1e:ee:28:82:bf:ef:8e:12:e2:
         3a:9d:bb:e3:6b:c7:41:98:2d:a0:47:c7:ab:c9:41:04:9f:40:
         17:8b:da:39:4a:dd:68:58:2c:5d:09:35:2d:a4:a0:8c:2b:d9:
         65:90:63:0d:4d:30:dd:e9:01:44:9a:76:f3:5c:4e:6a:67:78:
         54:fe:25:c1:91:f2:d8:9d:c9:41:bf:79:65:00:25:76:3a:94:
         a8:23:57:0d:36:38:2e:d5:0a:39:0c:c7:d9:5a:02:9c:15:a3:
         75:cf:66:f9:bb:f6:ad:cc:65:7f:da:ef:ca:9e:3b:61:41:5f:
         79:19:85:7f:f7:e4:67:13:4a:74:54:54:8f:4f:b5:a9:89:20:
         eb:bb:9b:3b:7d:b8:4c:59:27:35:f5:8f:56:80:10:91:a9:9d:
         b5:66:e3:5e:15:67:ee:1a:fa:ba:88:c1:e7:fc:ea:57:af:e8:
         18:ef:e3:00:8f:e0:0e:fb:9f:d1:81:50:46:7e:25:43:30:62:
         d3:39:5f:56:c8:a7:62:ac:09:9b:bc:04:e0:24:cb:6c:48:a1:
         59:6d:61:b4:ff:f2:61:8b:82:78:75:7f:0d:c0:2e:af:31:41:
         62:39:c2:fe:e3:25:4d:cf
-----BEGIN CERTIFICATE-----
MIIFITCCAwmgAwIBAgIBCDANBgkqhkiG9w0BAQsFADCBhzELMAkGA1UEBhMCSU4x
DjAMBgNVBAgMBURlbGhpMQ4wDAYDVQQHDAVEZWxoaTEOMAwGA1UECgwFSUlJVEQx
CzAJBgNVBAsMAk5TMREwDwYDVQQDDAhBbnNodW1hbjEoMCYGCSqGSIb3DQEJARYZ
YW5zaHVtYW4xNDAyMUBpaWl0ZC5hYy5pbjAeFw0xNjExMjAxNzMyNDBaFw0xOTA4
MTcxNzMyNDBaMEgxCzAJBgNVBAYTAklOMQ4wDAYDVQQIDAVEZWxoaTEMMAoGA1UE
BwwDTkNSMQ4wDAYDVQQKDAVJSUlURDELMAkGA1UEAwwCTlMwggEiMA0GCSqGSIb3
DQEBAQUAA4IBDwAwggEKAoIBAQDNNFlp6ZXUAQVXf6luHSNVx4EzUhHLaHLmUCQz
7u56TS5oYp17oRyWc39zPjGwS+UvuFTe1XmC5H0EpP1IyUHkeTdH1xH+KBwtnpCf
eZzQ1dvL3G5eVTttnED+4YCTh3V99HG5fZmZB7t1eabgDYQurIPf4tk3vSyf+no3
ZgrRXC77pO9fFZw1qFMAfOEnznrFqYjt9iM3UgsLUWGHVCiSIIpzsXg6jt8Ke/YQ
ApXtlzhmxRWThMI2wLSY6grYBuOXJ5cob2UeNV2od5/Wj5QXNEosTLkSpV3MXLwJ
Czw22/IuFqVbmUzjmLgAlBLxzKjKZ+bDQmtVLAsjrRvojy21AgMBAAGjgdUwgdIw
HQYDVR0OBBYEFC7kMUm6abcBdNAJeYXd8sV/7HZaMB8GA1UdIwQYMBaAFGQEa1Ns
AWBXoEf6y5gCLW8BmhDDMAkGA1UdEwQCMAAwCwYDVR0PBAQDAgWgMEoGA1UdEQRD
MEGCC2V4YW1wbGUuY29tgg93d3cuZXhhbXBsZS5jb22CEG1haWwuZXhhbXBsZS5j
b22CD2Z0cC5leGFtcGxlLmNvbTAsBglghkgBhvhCAQ0EHxYdT3BlblNTTCBHZW5l
cmF0ZWQgQ2VydGlmaWNhdGUwDQYJKoZIhvcNAQELBQADggIBAHiUkyUallZj7jn2
zy84nq13yFJ2kiK6Arpd44N2ibM+xtCYWDwL6QgtL+hPHBpWtlauTaf4YPR7EyOq
QokjBIXOrGv8yYKzQs/lSA/SR30cpXVLsFlPLX1HB/5SPSA9olVVsuM4EoSL9At6
tc6BQHBNPWEUZiDr74+Af75R9Ljh50J9PbR5cjTatcq4BXEYwjJiKGSVqKhGJApl
d/aHUE3d5ItcSjzbGxagYYBwOFpM6akp6MYCytWPTMOolgTYPLaylsw4kim4sHtK
568XyFFX4r4WOsFLcDkECWBfi1knSinqlmX7ig7A6t4788TZ8o6RRoBKBXI4V1LH
PpNqBsSUrKRtmrKrzj5imXR2fd32pb2osegDQR7uKIK/744S4jqdu+Nrx0GYLaBH
x6vJQQSfQBeL2jlK3WhYLF0JNS2koIwr2WWQYw1NMN3pAUSadvNcTmpneFT+JcGR
8tidyUG/eWUAJXY6lKgjVw02OC7VCjkMx9laApwVo3XPZvm79q3MZX/a78qeO2FB
X3kZhX/35GcTSnRUVI9PtamJIOu7mzt9uExZJzX1j1aAEJGpnbVm414VZ+4a+rqI
wef86lev6Bjv4wCP4A77n9GBUEZ+JUMwYtM5X1bIp2KsCZu8BOAky2xIoVltYbT/
8mGLgnh1fw3ALq8xQWI5wv7jJU3P
-----END CERTIFICATE-----
