Certificate:
    Data:
        Version: 3 (0x2)
        Serial Number: 9 (0x9)
    Signature Algorithm: sha256WithRSAEncryption
        Issuer: C=IN, ST=Delhi, L=Delhi, O=IIITD, OU=NS, CN=Anshuman/emailAddress=anshuman14021@iiitd.ac.in
        Validity
            Not Before: Nov 20 17:32:56 2016 GMT
            Not After : Aug 17 17:32:56 2019 GMT
        Subject: C=IN, ST=Delhi, L=NCR, O=IIITD, CN=NS
        Subject Public Key Info:
            Public Key Algorithm: rsaEncryption
                Public-Key: (2048 bit)
                Modulus:
                    00:cd:34:59:69:e9:95:d4:01:05:57:7f:a9:6e:1d:
                    23:55:c7:81:33:52:11:cb:68:72:e6:50:24:33:ee:
                    ee:7a:4d:2e:68:62:9d:7b:a1:1c:96:73:7f:73:3e:
                    31:b0:4b:e5:2f:b8:54:de:d5:79:82:e4:7d:04:a4:
                    fd:48:c9:41:e4:79:37:47:d7:11:fe:28:1c:2d:9e:
                    90:9f:79:9c:d0:d5:db:cb:dc:6e:5e:55:3b:6d:9c:
                    40:fe:e1:80:93:87:75:7d:f4:71:b9:7d:99:99:07:
                    bb:75:79:a6:e0:0d:84:2e:ac:83:df:e2:d9:37:bd:
                    2c:9f:fa:7a:37:66:0a:d1:5c:2e:fb:a4:ef:5f:15:
                    9c:35:a8:53:00:7c:e1:27:ce:7a:c5:a9:88:ed:f6:
                    23:37:52:0b:0b:51:61:87:54:28:92:20:8a:73:b1:
                    78:3a:8e:df:0a:7b:f6:10:02:95:ed:97:38:66:c5:
                    15:93:84:c2:36:c0:b4:98:ea:0a:d8:06:e3:97:27:
                    97:28:6f:65:1e:35:5d:a8:77:9f:d6:8f:94:17:34:
                    4a:2c:4c:b9:12:a5:5d:cc:5c:bc:09:0b:3c:36:db:
                    f2:2e:16:a5:5b:99:4c:e3:98:b8:00:94:12:f1:cc:
                    a8:ca:67:e6:c3:42:6b:55:2c:0b:23:ad:1b:e8:8f:
                    2d:b5
                Exponent: 65537 (0x10001)
        X509v3 extensions:
            X509v3 Subject Key Identifier: 
                2E:E4:31:49:BA:69:B7:01:74:D0:09:79:85:DD:F2:C5:7F:EC:76:5A
            X509v3 Authority Key Identifier: 
                keyid:64:04:6B:53:6C:01:60:57:A0:47:FA:CB:98:02:2D:6F:01:9A:10:C3

            X509v3 Basic Constraints: 
                CA:FALSE
            X509v3 Key Usage: 
                Digital Signature, Key Encipherment
            X509v3 Subject Alternative Name: 
                DNS:example.com, DNS:www.example.com, DNS:mail.example.com, DNS:ftp.example.com
            Netscape Comment: 
                OpenSSL Generated Certificate
    Signature Algorithm: sha256WithRSAEncryption
         51:cd:93:8a:99:73:11:4a:29:10:d7:2d:ae:ff:80:5f:7f:f8:
         88:8b:b7:f9:49:0e:bd:c9:06:8a:ed:8a:be:38:71:01:90:26:
         1d:ab:71:fb:97:8b:a5:e3:79:56:9a:3c:12:8f:10:00:e6:ea:
         db:56:e7:38:76:e1:b0:86:9b:8b:c5:ac:6e:77:ee:e2:f6:bf:
         45:4a:55:90:85:5c:1d:86:4b:fb:46:8d:37:fe:c8:d6:5a:04:
         98:e1:e3:e7:68:fb:2d:55:24:98:10:fb:b8:74:af:46:26:d6:
         ed:83:9c:c1:6a:4c:a4:ca:38:1f:5d:6b:dc:b6:7d:ee:9c:82:
         37:09:fe:ba:e1:fe:22:ac:0e:77:e5:b3:cd:a4:e3:e1:86:ff:
         42:05:52:d2:31:47:10:6c:59:4b:24:82:eb:f1:5f:c1:87:6d:
         d1:95:d2:0a:85:6c:f6:33:2a:12:a2:12:ab:9a:be:e6:64:6c:
         b4:d5:ee:91:a8:6a:f2:e8:53:af:59:f3:f3:b4:67:df:b6:c7:
         9d:bf:c2:21:ff:f9:12:73:29:5e:cb:c7:fe:71:59:4d:29:82:
         7a:19:89:92:8a:61:c6:ee:bf:74:c3:72:97:29:47:68:74:56:
         86:64:77:c9:b3:2e:7d:81:b4:de:6e:e7:95:bf:df:2a:df:1c:
         59:6e:24:e9:29:1d:92:98:ad:04:d1:2a:c5:d1:c9:33:02:ef:
         07:49:e5:4b:f4:a0:1b:49:eb:fb:c4:2a:c3:7a:7f:e2:81:30:
         99:04:12:49:0b:16:20:fe:53:09:d1:7c:73:75:ac:73:ae:cc:
         06:bc:2a:c8:b8:98:0d:e6:13:76:71:1d:82:d4:8f:50:30:e9:
         84:a7:47:73:21:5e:c6:7c:42:ba:3a:be:e0:fa:06:34:3b:19:
         76:83:c7:d5:ce:e9:ff:a1:c9:c5:65:0f:de:98:6a:18:2e:af:
         05:97:03:32:e0:c3:ee:43:7d:3e:47:59:39:9d:7f:a5:f5:43:
         ec:aa:dc:02:eb:2f:44:96:a1:e2:f7:4c:e5:21:11:c6:d8:f1:
         18:27:ca:6f:88:3d:90:26:1b:b9:af:a0:d1:2c:62:4d:e8:ef:
         75:3e:cf:57:2b:98:0c:45:15:cd:eb:03:6c:6d:2d:f7:e0:4c:
         d9:9b:34:c1:8c:c2:e8:13:51:a1:41:b2:e9:6f:33:8a:de:5f:
         fb:d4:8f:a2:07:80:34:c8:8d:3d:85:2f:61:c0:2f:c4:76:19:
         8e:d6:40:81:47:7f:c8:d6:a8:c7:dd:a7:05:af:74:9e:6d:17:
         5d:98:fb:48:c4:4b:3d:9a:1f:04:36:5c:41:64:d3:ea:e4:89:
         b9:e4:68:b0:64:5e:18:15
-----BEGIN CERTIFICATE-----
MIIFITCCAwmgAwIBAgIBCTANBgkqhkiG9w0BAQsFADCBhzELMAkGA1UEBhMCSU4x
DjAMBgNVBAgMBURlbGhpMQ4wDAYDVQQHDAVEZWxoaTEOMAwGA1UECgwFSUlJVEQx
CzAJBgNVBAsMAk5TMREwDwYDVQQDDAhBbnNodW1hbjEoMCYGCSqGSIb3DQEJARYZ
YW5zaHVtYW4xNDAyMUBpaWl0ZC5hYy5pbjAeFw0xNjExMjAxNzMyNTZaFw0xOTA4
MTcxNzMyNTZaMEgxCzAJBgNVBAYTAklOMQ4wDAYDVQQIDAVEZWxoaTEMMAoGA1UE
BwwDTkNSMQ4wDAYDVQQKDAVJSUlURDELMAkGA1UEAwwCTlMwggEiMA0GCSqGSIb3
DQEBAQUAA4IBDwAwggEKAoIBAQDNNFlp6ZXUAQVXf6luHSNVx4EzUhHLaHLmUCQz
7u56TS5oYp17oRyWc39zPjGwS+UvuFTe1XmC5H0EpP1IyUHkeTdH1xH+KBwtnpCf
eZzQ1dvL3G5eVTttnED+4YCTh3V99HG5fZmZB7t1eabgDYQurIPf4tk3vSyf+no3
ZgrRXC77pO9fFZw1qFMAfOEnznrFqYjt9iM3UgsLUWGHVCiSIIpzsXg6jt8Ke/YQ
ApXtlzhmxRWThMI2wLSY6grYBuOXJ5cob2UeNV2od5/Wj5QXNEosTLkSpV3MXLwJ
Czw22/IuFqVbmUzjmLgAlBLxzKjKZ+bDQmtVLAsjrRvojy21AgMBAAGjgdUwgdIw
HQYDVR0OBBYEFC7kMUm6abcBdNAJeYXd8sV/7HZaMB8GA1UdIwQYMBaAFGQEa1Ns
AWBXoEf6y5gCLW8BmhDDMAkGA1UdEwQCMAAwCwYDVR0PBAQDAgWgMEoGA1UdEQRD
MEGCC2V4YW1wbGUuY29tgg93d3cuZXhhbXBsZS5jb22CEG1haWwuZXhhbXBsZS5j
b22CD2Z0cC5leGFtcGxlLmNvbTAsBglghkgBhvhCAQ0EHxYdT3BlblNTTCBHZW5l
cmF0ZWQgQ2VydGlmaWNhdGUwDQYJKoZIhvcNAQELBQADggIBAFHNk4qZcxFKKRDX
La7/gF9/+IiLt/lJDr3JBortir44cQGQJh2rcfuXi6XjeVaaPBKPEADm6ttW5zh2
4bCGm4vFrG537uL2v0VKVZCFXB2GS/tGjTf+yNZaBJjh4+do+y1VJJgQ+7h0r0Ym
1u2DnMFqTKTKOB9da9y2fe6cgjcJ/rrh/iKsDnfls82k4+GG/0IFUtIxRxBsWUsk
guvxX8GHbdGV0gqFbPYzKhKiEquavuZkbLTV7pGoavLoU69Z8/O0Z9+2x52/wiH/
+RJzKV7Lx/5xWU0pgnoZiZKKYcbuv3TDcpcpR2h0VoZkd8mzLn2BtN5u55W/3yrf
HFluJOkpHZKYrQTRKsXRyTMC7wdJ5Uv0oBtJ6/vEKsN6f+KBMJkEEkkLFiD+UwnR
fHN1rHOuzAa8Ksi4mA3mE3ZxHYLUj1Aw6YSnR3MhXsZ8Qro6vuD6BjQ7GXaDx9XO
6f+hycVlD96YahgurwWXAzLgw+5DfT5HWTmdf6X1Q+yq3ALrL0SWoeL3TOUhEcbY
8Rgnym+IPZAmG7mvoNEsYk3o73U+z1crmAxFFc3rA2xtLffgTNmbNMGMwugTUaFB
sulvM4reX/vUj6IHgDTIjT2FL2HAL8R2GY7WQIFHf8jWqMfdpwWvdJ5tF12Y+0jE
Sz2aHwQ2XEFk0+rkibnkaLBkXhgV
-----END CERTIFICATE-----
