Certificate:
    Data:
        Version: 3 (0x2)
        Serial Number: 10 (0xa)
    Signature Algorithm: sha256WithRSAEncryption
        Issuer: C=IN, ST=Delhi, L=Delhi, O=IIITD, OU=NS, CN=Anshuman/emailAddress=anshuman14021@iiitd.ac.in
        Validity
            Not Before: Nov 20 17:34:22 2016 GMT
            Not After : Aug 17 17:34:22 2019 GMT
        Subject: C=IN, ST=Delhi, L=NCR, O=IIITD, CN=NS
        Subject Public Key Info:
            Public Key Algorithm: rsaEncryption
                Public-Key: (2048 bit)
                Modulus:
                    00:cd:34:59:69:e9:95:d4:01:05:57:7f:a9:6e:1d:
                    23:55:c7:81:33:52:11:cb:68:72:e6:50:24:33:ee:
                    ee:7a:4d:2e:68:62:9d:7b:a1:1c:96:73:7f:73:3e:
                    31:b0:4b:e5:2f:b8:54:de:d5:79:82:e4:7d:04:a4:
                    fd:48:c9:41:e4:79:37:47:d7:11:fe:28:1c:2d:9e:
                    90:9f:79:9c:d0:d5:db:cb:dc:6e:5e:55:3b:6d:9c:
                    40:fe:e1:80:93:87:75:7d:f4:71:b9:7d:99:99:07:
                    bb:75:79:a6:e0:0d:84:2e:ac:83:df:e2:d9:37:bd:
                    2c:9f:fa:7a:37:66:0a:d1:5c:2e:fb:a4:ef:5f:15:
                    9c:35:a8:53:00:7c:e1:27:ce:7a:c5:a9:88:ed:f6:
                    23:37:52:0b:0b:51:61:87:54:28:92:20:8a:73:b1:
                    78:3a:8e:df:0a:7b:f6:10:02:95:ed:97:38:66:c5:
                    15:93:84:c2:36:c0:b4:98:ea:0a:d8:06:e3:97:27:
                    97:28:6f:65:1e:35:5d:a8:77:9f:d6:8f:94:17:34:
                    4a:2c:4c:b9:12:a5:5d:cc:5c:bc:09:0b:3c:36:db:
                    f2:2e:16:a5:5b:99:4c:e3:98:b8:00:94:12:f1:cc:
                    a8:ca:67:e6:c3:42:6b:55:2c:0b:23:ad:1b:e8:8f:
                    2d:b5
                Exponent: 65537 (0x10001)
        X509v3 extensions:
            X509v3 Subject Key Identifier: 
                2E:E4:31:49:BA:69:B7:01:74:D0:09:79:85:DD:F2:C5:7F:EC:76:5A
            X509v3 Authority Key Identifier: 
                keyid:64:04:6B:53:6C:01:60:57:A0:47:FA:CB:98:02:2D:6F:01:9A:10:C3

            X509v3 Basic Constraints: 
                CA:FALSE
            X509v3 Key Usage: 
                Digital Signature, Key Encipherment
            X509v3 Subject Alternative Name: 
                DNS:example.com, DNS:www.example.com, DNS:mail.example.com, DNS:ftp.example.com
            Netscape Comment: 
                OpenSSL Generated Certificate
    Signature Algorithm: sha256WithRSAEncryption
         49:7d:ef:bc:04:09:6a:62:36:44:86:72:41:32:97:56:b4:da:
         9d:81:cf:3b:9c:3f:3b:b9:5c:a5:fd:f3:56:83:7d:80:47:01:
         4c:9e:e3:55:13:2b:e1:41:62:2e:b2:e2:08:c1:41:18:a7:a4:
         77:9d:23:90:f1:59:07:4f:e5:a7:55:99:6f:4e:b2:d8:79:f5:
         bd:ee:87:68:a2:4a:04:db:42:4c:26:93:a6:d8:8b:e5:85:ec:
         ce:2b:1d:83:ea:83:c8:59:2c:63:2a:f9:db:74:e9:be:f9:4e:
         ad:af:3e:ee:e2:27:da:67:0f:b1:04:5e:18:85:1d:41:5a:82:
         ea:dc:ea:b4:db:ff:de:d0:58:12:8f:1d:19:1c:77:14:7b:26:
         66:37:e5:63:07:f8:92:9e:31:a8:dc:88:4c:ab:82:56:c5:44:
         02:d3:f3:80:4c:12:73:03:90:2b:85:81:b7:c5:4b:71:fa:dd:
         ea:56:fd:a0:bc:8b:55:b2:22:ab:ef:b9:7b:2d:27:f5:82:3e:
         15:42:04:3e:90:9e:6e:0f:f1:21:23:77:2b:76:46:e9:e3:5a:
         ee:7e:8d:72:31:96:09:07:0d:1c:72:68:7b:a0:16:f4:28:f3:
         03:3b:40:8a:93:58:52:4b:66:76:89:cd:be:39:52:38:e6:71:
         ea:0e:5b:e1:b6:cb:c4:1a:b7:bc:71:17:80:6f:da:00:fb:76:
         bc:3a:ac:34:8c:65:fe:50:97:54:7e:ef:96:7b:e6:ef:af:1e:
         31:95:9d:3b:05:7a:08:e3:98:e1:c1:4d:31:2e:98:42:4a:be:
         9d:d4:f3:55:de:74:a5:3c:06:af:19:c4:8f:e3:30:09:23:05:
         65:9f:19:2f:c7:1d:51:7b:54:99:2b:e7:df:b3:33:76:2f:c3:
         b5:a8:47:97:45:b3:f0:07:75:f8:b5:b9:8e:f5:5c:0f:7e:f7:
         c0:b9:b2:6a:26:7c:25:0b:57:f0:c0:ea:05:1f:69:12:0e:52:
         5e:8a:53:19:78:70:13:e0:44:12:54:73:17:84:94:6a:7d:a1:
         da:c2:64:e4:1b:1f:99:03:7f:1e:22:42:af:cc:28:70:17:a7:
         5e:f3:a0:0e:90:b1:0c:81:1d:82:b7:7e:72:4b:aa:e5:7e:1d:
         21:8e:be:87:fd:2b:0d:36:3c:b2:39:24:ae:ca:f2:1b:68:05:
         53:28:7a:e0:5f:b7:a9:0c:be:4e:fa:78:00:2d:7d:74:12:78:
         67:98:e1:c7:04:53:07:21:8c:ce:e7:f6:46:13:b5:81:60:7a:
         a8:f6:3a:5c:2f:28:e6:b7:4f:70:c3:2c:28:b5:fc:d3:44:4e:
         9e:9b:e7:1f:f6:da:5c:e5
-----BEGIN CERTIFICATE-----
MIIFITCCAwmgAwIBAgIBCjANBgkqhkiG9w0BAQsFADCBhzELMAkGA1UEBhMCSU4x
DjAMBgNVBAgMBURlbGhpMQ4wDAYDVQQHDAVEZWxoaTEOMAwGA1UECgwFSUlJVEQx
CzAJBgNVBAsMAk5TMREwDwYDVQQDDAhBbnNodW1hbjEoMCYGCSqGSIb3DQEJARYZ
YW5zaHVtYW4xNDAyMUBpaWl0ZC5hYy5pbjAeFw0xNjExMjAxNzM0MjJaFw0xOTA4
MTcxNzM0MjJaMEgxCzAJBgNVBAYTAklOMQ4wDAYDVQQIDAVEZWxoaTEMMAoGA1UE
BwwDTkNSMQ4wDAYDVQQKDAVJSUlURDELMAkGA1UEAwwCTlMwggEiMA0GCSqGSIb3
DQEBAQUAA4IBDwAwggEKAoIBAQDNNFlp6ZXUAQVXf6luHSNVx4EzUhHLaHLmUCQz
7u56TS5oYp17oRyWc39zPjGwS+UvuFTe1XmC5H0EpP1IyUHkeTdH1xH+KBwtnpCf
eZzQ1dvL3G5eVTttnED+4YCTh3V99HG5fZmZB7t1eabgDYQurIPf4tk3vSyf+no3
ZgrRXC77pO9fFZw1qFMAfOEnznrFqYjt9iM3UgsLUWGHVCiSIIpzsXg6jt8Ke/YQ
ApXtlzhmxRWThMI2wLSY6grYBuOXJ5cob2UeNV2od5/Wj5QXNEosTLkSpV3MXLwJ
Czw22/IuFqVbmUzjmLgAlBLxzKjKZ+bDQmtVLAsjrRvojy21AgMBAAGjgdUwgdIw
HQYDVR0OBBYEFC7kMUm6abcBdNAJeYXd8sV/7HZaMB8GA1UdIwQYMBaAFGQEa1Ns
AWBXoEf6y5gCLW8BmhDDMAkGA1UdEwQCMAAwCwYDVR0PBAQDAgWgMEoGA1UdEQRD
MEGCC2V4YW1wbGUuY29tgg93d3cuZXhhbXBsZS5jb22CEG1haWwuZXhhbXBsZS5j
b22CD2Z0cC5leGFtcGxlLmNvbTAsBglghkgBhvhCAQ0EHxYdT3BlblNTTCBHZW5l
cmF0ZWQgQ2VydGlmaWNhdGUwDQYJKoZIhvcNAQELBQADggIBAEl977wECWpiNkSG
ckEyl1a02p2BzzucPzu5XKX981aDfYBHAUye41UTK+FBYi6y4gjBQRinpHedI5Dx
WQdP5adVmW9Osth59b3uh2iiSgTbQkwmk6bYi+WF7M4rHYPqg8hZLGMq+dt06b75
Tq2vPu7iJ9pnD7EEXhiFHUFagurc6rTb/97QWBKPHRkcdxR7JmY35WMH+JKeMajc
iEyrglbFRALT84BMEnMDkCuFgbfFS3H63epW/aC8i1WyIqvvuXstJ/WCPhVCBD6Q
nm4P8SEjdyt2RunjWu5+jXIxlgkHDRxyaHugFvQo8wM7QIqTWFJLZnaJzb45Ujjm
ceoOW+G2y8Qat7xxF4Bv2gD7drw6rDSMZf5Ql1R+75Z75u+vHjGVnTsFegjjmOHB
TTEumEJKvp3U81XedKU8Bq8ZxI/jMAkjBWWfGS/HHVF7VJkr59+zM3Yvw7WoR5dF
s/AHdfi1uY71XA9+98C5smomfCULV/DA6gUfaRIOUl6KUxl4cBPgRBJUcxeElGp9
odrCZOQbH5kDfx4iQq/MKHAXp17zoA6QsQyBHYK3fnJLquV+HSGOvof9Kw02PLI5
JK7K8htoBVMoeuBft6kMvk76eAAtfXQSeGeY4ccEUwchjM7n9kYTtYFgeqj2Olwv
KOa3T3DDLCi1/NNETp6b5x/22lzl
-----END CERTIFICATE-----
