Certificate:
    Data:
        Version: 3 (0x2)
        Serial Number: 11 (0xb)
    Signature Algorithm: sha256WithRSAEncryption
        Issuer: C=IN, ST=Delhi, L=Delhi, O=IIITD, OU=NS, CN=Anshuman/emailAddress=anshuman14021@iiitd.ac.in
        Validity
            Not Before: Nov 20 17:37:12 2016 GMT
            Not After : Aug 17 17:37:12 2019 GMT
        Subject: C=IN, ST=Delhi, L=NCR, O=IIITD, CN=NS
        Subject Public Key Info:
            Public Key Algorithm: rsaEncryption
                Public-Key: (2048 bit)
                Modulus:
                    00:b5:dc:62:4b:a3:99:77:12:a2:bc:59:10:9b:87:
                    d7:64:27:34:6a:75:63:63:51:69:c3:ea:5b:21:48:
                    82:ff:c6:71:16:93:b5:31:b3:d0:85:a4:8f:1d:78:
                    00:cd:be:5b:43:ad:c4:0f:92:c8:7a:30:d0:47:81:
                    a6:94:c7:6b:c6:91:52:4b:31:0d:86:40:38:c1:24:
                    83:97:a3:b3:04:c9:62:21:19:58:97:4b:9f:86:71:
                    4a:b3:eb:e6:61:01:96:51:24:aa:71:f0:aa:7f:11:
                    70:f5:0f:56:f5:e0:33:07:74:c8:da:36:95:7f:07:
                    28:f3:52:e4:12:86:f8:ca:e7:85:f8:2b:c0:e0:b8:
                    37:c3:9d:6a:59:ea:b1:82:49:96:27:90:a2:f7:1c:
                    ac:f6:46:dd:1d:52:05:0a:22:fc:5e:aa:cb:fb:f9:
                    97:7f:96:fa:3c:99:a7:a4:aa:46:bd:c1:3b:bd:57:
                    23:f9:70:7f:65:60:50:c4:60:ab:5a:36:c8:40:a1:
                    06:73:9b:6d:42:cf:d9:4a:a2:48:82:1e:65:97:15:
                    04:14:10:1a:7c:aa:4e:e7:35:a2:c2:4d:eb:a9:04:
                    27:65:89:8d:00:bd:ec:cf:18:11:d1:f6:b3:af:79:
                    a9:e2:5f:f4:ff:87:c6:40:88:f7:4d:2a:55:b3:3e:
                    f2:9d
                Exponent: 65537 (0x10001)
        X509v3 extensions:
            X509v3 Subject Key Identifier: 
                3D:23:E4:80:1E:56:32:E3:7B:A5:FB:0A:DE:81:0D:3B:FD:C3:61:05
            X509v3 Authority Key Identifier: 
                keyid:64:04:6B:53:6C:01:60:57:A0:47:FA:CB:98:02:2D:6F:01:9A:10:C3

            X509v3 Basic Constraints: 
                CA:FALSE
            X509v3 Key Usage: 
                Digital Signature, Key Encipherment
            X509v3 Subject Alternative Name: 
                DNS:example.com, DNS:www.example.com, DNS:mail.example.com, DNS:ftp.example.com
            Netscape Comment: 
                OpenSSL Generated Certificate
    Signature Algorithm: sha256WithRSAEncryption
         86:a5:f5:ba:7f:94:5c:80:10:c0:a1:4c:e9:97:ce:26:92:17:
         b3:1a:89:27:9c:31:e9:08:54:b1:e6:75:fa:c7:8f:23:29:99:
         67:1d:53:26:11:51:aa:ea:8c:96:ce:93:b4:ba:36:dc:7e:a2:
         30:b8:49:51:9c:15:e1:f8:51:03:8d:34:c5:7a:b8:cb:16:79:
         e8:61:2d:e9:02:85:7e:51:53:b0:57:d6:90:73:a3:d4:2e:1f:
         9b:99:cc:34:cd:49:20:89:a1:51:57:95:85:06:63:71:2a:35:
         2d:68:d9:1b:70:0c:b5:a7:7a:fd:24:e8:23:d3:e4:6e:cf:7f:
         49:29:1c:5c:c5:e5:aa:d7:ca:85:d3:d3:01:3c:b4:25:b4:f6:
         e8:3e:28:1a:5e:72:8e:4e:31:71:d3:45:b5:c3:8c:fa:29:da:
         29:a9:ff:de:31:1d:07:04:b7:fe:59:bb:e6:ce:d5:18:dc:2d:
         62:b7:d3:d8:51:a9:13:ef:c9:33:2c:b4:1d:af:e5:29:66:78:
         c8:b8:1a:16:20:e9:84:80:53:2e:93:27:6a:75:52:20:c8:8a:
         02:7b:3c:ec:b0:5c:52:a8:bc:80:7a:8a:a1:44:53:99:1c:db:
         0a:07:d1:32:a1:ac:83:94:21:64:1f:fb:da:9e:fa:dd:d2:02:
         b2:c5:bc:e9:d2:f9:68:d9:6f:6a:5a:f0:dc:33:f0:c5:70:65:
         3e:e4:70:e5:5c:7a:9b:a7:de:de:36:c7:90:17:9c:95:90:d1:
         d8:44:6e:b9:e3:71:47:c3:a7:eb:52:fe:fd:17:e3:da:44:b2:
         3f:f4:a1:72:8f:93:ad:75:3d:a3:be:9e:b1:25:d4:5f:36:29:
         8f:c7:ce:9c:30:a0:27:b5:1e:4f:ba:aa:65:ce:32:24:33:71:
         ea:ed:b3:e3:5f:39:96:86:b3:71:ed:ac:7e:d1:98:74:9b:c2:
         4c:1c:e9:f1:84:fc:21:f3:ae:e5:89:45:65:57:79:10:ec:06:
         11:20:2c:ca:1b:d7:88:83:2d:97:56:41:c9:cf:d8:ee:0d:70:
         00:02:0d:0c:5a:c0:57:a5:f5:1d:29:a9:16:74:f1:ac:43:06:
         eb:d0:60:2f:96:a9:bf:45:46:52:84:32:19:11:ad:bb:b5:71:
         ac:76:cc:de:38:a7:48:a9:76:e0:54:be:e9:79:82:f5:4d:43:
         c1:e0:a1:41:8e:bd:35:d3:05:92:79:77:b3:15:ae:8f:b1:39:
         a5:59:b6:a0:b4:c1:e8:9f:25:be:9f:23:73:bb:c2:1f:3d:31:
         63:cd:e4:e9:5f:53:9a:d1:1d:55:0d:cf:7c:8e:74:6c:da:cc:
         97:a3:bf:48:0f:61:73:14
-----BEGIN CERTIFICATE-----
MIIFITCCAwmgAwIBAgIBCzANBgkqhkiG9w0BAQsFADCBhzELMAkGA1UEBhMCSU4x
DjAMBgNVBAgMBURlbGhpMQ4wDAYDVQQHDAVEZWxoaTEOMAwGA1UECgwFSUlJVEQx
CzAJBgNVBAsMAk5TMREwDwYDVQQDDAhBbnNodW1hbjEoMCYGCSqGSIb3DQEJARYZ
YW5zaHVtYW4xNDAyMUBpaWl0ZC5hYy5pbjAeFw0xNjExMjAxNzM3MTJaFw0xOTA4
MTcxNzM3MTJaMEgxCzAJBgNVBAYTAklOMQ4wDAYDVQQIDAVEZWxoaTEMMAoGA1UE
BwwDTkNSMQ4wDAYDVQQKDAVJSUlURDELMAkGA1UEAwwCTlMwggEiMA0GCSqGSIb3
DQEBAQUAA4IBDwAwggEKAoIBAQC13GJLo5l3EqK8WRCbh9dkJzRqdWNjUWnD6lsh
SIL/xnEWk7Uxs9CFpI8deADNvltDrcQPksh6MNBHgaaUx2vGkVJLMQ2GQDjBJIOX
o7MEyWIhGViXS5+GcUqz6+ZhAZZRJKpx8Kp/EXD1D1b14DMHdMjaNpV/ByjzUuQS
hvjK54X4K8DguDfDnWpZ6rGCSZYnkKL3HKz2Rt0dUgUKIvxeqsv7+Zd/lvo8maek
qka9wTu9VyP5cH9lYFDEYKtaNshAoQZzm21Cz9lKokiCHmWXFQQUEBp8qk7nNaLC
TeupBCdliY0AvezPGBHR9rOveaniX/T/h8ZAiPdNKlWzPvKdAgMBAAGjgdUwgdIw
HQYDVR0OBBYEFD0j5IAeVjLje6X7Ct6BDTv9w2EFMB8GA1UdIwQYMBaAFGQEa1Ns
AWBXoEf6y5gCLW8BmhDDMAkGA1UdEwQCMAAwCwYDVR0PBAQDAgWgMEoGA1UdEQRD
MEGCC2V4YW1wbGUuY29tgg93d3cuZXhhbXBsZS5jb22CEG1haWwuZXhhbXBsZS5j
b22CD2Z0cC5leGFtcGxlLmNvbTAsBglghkgBhvhCAQ0EHxYdT3BlblNTTCBHZW5l
cmF0ZWQgQ2VydGlmaWNhdGUwDQYJKoZIhvcNAQELBQADggIBAIal9bp/lFyAEMCh
TOmXziaSF7MaiSecMekIVLHmdfrHjyMpmWcdUyYRUarqjJbOk7S6Ntx+ojC4SVGc
FeH4UQONNMV6uMsWeehhLekChX5RU7BX1pBzo9QuH5uZzDTNSSCJoVFXlYUGY3Eq
NS1o2RtwDLWnev0k6CPT5G7Pf0kpHFzF5arXyoXT0wE8tCW09ug+KBpeco5OMXHT
RbXDjPop2imp/94xHQcEt/5Zu+bO1RjcLWK309hRqRPvyTMstB2v5SlmeMi4GhYg
6YSAUy6TJ2p1UiDIigJ7POywXFKovIB6iqFEU5kc2woH0TKhrIOUIWQf+9qe+t3S
ArLFvOnS+WjZb2pa8Nwz8MVwZT7kcOVcepun3t42x5AXnJWQ0dhEbrnjcUfDp+tS
/v0X49pEsj/0oXKPk611PaO+nrEl1F82KY/HzpwwoCe1Hk+6qmXOMiQzcerts+Nf
OZaGs3HtrH7RmHSbwkwc6fGE/CHzruWJRWVXeRDsBhEgLMob14iDLZdWQcnP2O4N
cAACDQxawFel9R0pqRZ08axDBuvQYC+Wqb9FRlKEMhkRrbu1cax2zN44p0ipduBU
vul5gvVNQ8HgoUGOvTXTBZJ5d7MVro+xOaVZtqC0weifJb6fI3O7wh89MWPN5Olf
U5rRHVUNz3yOdGzazJejv0gPYXMU
-----END CERTIFICATE-----
