Certificate:
    Data:
        Version: 3 (0x2)
        Serial Number: 12 (0xc)
    Signature Algorithm: sha256WithRSAEncryption
        Issuer: C=IN, ST=Delhi, L=Delhi, O=IIITD, OU=NS, CN=Anshuman/emailAddress=anshuman14021@iiitd.ac.in
        Validity
            Not Before: Nov 20 17:39:19 2016 GMT
            Not After : Aug 17 17:39:19 2019 GMT
        Subject: C=IN, ST=Delhi, L=NCR, O=IIITD, CN=NS
        Subject Public Key Info:
            Public Key Algorithm: rsaEncryption
                Public-Key: (2048 bit)
                Modulus:
                    00:ed:66:a7:b1:75:f9:4a:55:93:79:ef:24:72:c3:
                    49:40:8d:5a:32:36:84:7e:6f:59:8b:e5:6c:a8:72:
                    66:b6:12:49:e0:95:0e:c3:17:18:33:74:c0:3c:e6:
                    51:f8:3e:50:9f:b7:b2:c7:0f:81:85:10:ac:5a:1e:
                    48:02:83:9a:b8:8b:8b:4d:9c:6f:63:ca:e6:e4:77:
                    60:29:ac:16:76:82:a0:4b:e7:25:be:1f:30:86:96:
                    28:e9:8f:e7:f3:ab:75:29:4b:66:f2:93:87:cc:1a:
                    eb:78:46:a0:2d:d2:56:9d:8d:49:4c:c7:f0:ab:68:
                    7e:7a:cd:40:b5:f5:03:f4:c8:a4:7f:14:58:88:29:
                    56:3c:1e:1a:b7:5f:43:50:a1:6e:bd:ee:2e:98:d5:
                    4b:5e:47:21:48:7e:cc:2d:f6:1b:c5:7c:f7:dc:30:
                    78:23:1e:fd:31:11:bc:88:6c:6a:18:a4:71:f9:a5:
                    77:26:30:30:9e:e9:f1:2b:f5:57:8f:41:de:38:79:
                    53:11:2c:e7:aa:05:e8:cb:5d:b1:09:18:17:a4:1e:
                    ee:3f:de:aa:ff:45:8f:d7:93:63:ff:aa:06:85:41:
                    5f:62:5f:fc:ce:d5:33:62:ae:e7:8b:d0:f9:f7:b5:
                    c5:46:57:bc:08:ab:11:94:d8:98:ab:ec:b7:0f:db:
                    c2:29
                Exponent: 65537 (0x10001)
        X509v3 extensions:
            X509v3 Subject Key Identifier: 
                1A:D7:AA:3B:61:88:82:26:32:30:B7:4A:62:37:3D:59:46:6A:AB:1A
            X509v3 Authority Key Identifier: 
                keyid:64:04:6B:53:6C:01:60:57:A0:47:FA:CB:98:02:2D:6F:01:9A:10:C3

            X509v3 Basic Constraints: 
                CA:FALSE
            X509v3 Key Usage: 
                Digital Signature, Key Encipherment
            X509v3 Subject Alternative Name: 
                DNS:example.com, DNS:www.example.com, DNS:mail.example.com, DNS:ftp.example.com
            Netscape Comment: 
                OpenSSL Generated Certificate
    Signature Algorithm: sha256WithRSAEncryption
         61:fe:ff:57:83:a6:cb:ea:1c:a3:0a:2d:b0:20:92:0f:06:58:
         1e:84:8c:41:16:19:30:8d:94:1b:d6:6e:9a:c5:63:f0:bb:53:
         37:73:85:35:a9:b3:b0:77:ac:5e:58:19:fe:3c:45:32:c7:64:
         ac:a4:58:3f:72:f1:99:4b:29:24:80:d3:a2:2d:3a:3c:47:69:
         a6:13:44:ff:53:fc:9a:7f:14:e6:8d:99:a1:c9:94:aa:54:2d:
         56:11:f2:93:90:4b:26:ae:61:d7:0c:e6:f0:4e:77:eb:8c:a8:
         38:da:2a:d5:26:ef:ad:ff:bb:13:62:5a:1c:21:6d:02:d8:87:
         6b:1f:53:ea:6c:18:4c:f5:e2:6f:86:20:07:dc:c1:5b:76:e1:
         6c:00:07:00:82:49:a0:ef:22:a3:cb:60:4d:45:e4:b2:a4:c0:
         04:b2:45:99:2d:d8:22:b1:6e:9b:85:db:3b:ac:ae:96:31:19:
         2d:7f:f5:ad:e0:21:3e:73:d3:a8:9d:5e:5f:1e:aa:6b:40:c5:
         f6:c0:0c:66:e6:ce:fb:62:4e:e3:c4:38:4e:67:8f:a6:0b:01:
         61:4d:af:d0:2b:29:1c:49:a5:e9:80:d8:85:0b:7c:99:b3:2c:
         60:3d:f5:8c:40:3a:94:6f:96:af:2f:58:fa:13:36:65:77:16:
         d7:68:ab:81:2c:7b:5d:62:9d:6d:57:b1:4b:57:e5:43:96:60:
         65:1b:77:45:46:d0:d8:6b:af:3b:77:54:80:da:5c:4b:37:cd:
         f6:25:80:97:da:50:7a:46:e0:ed:f9:6b:71:fb:87:87:8e:59:
         a2:93:56:06:20:6c:79:c2:d0:62:ec:7d:6b:23:8b:d3:9e:0d:
         b9:ec:c9:85:6f:45:1e:b6:4e:7a:60:9d:37:5d:ba:27:eb:36:
         3d:8d:5b:ca:10:9a:4c:4e:82:88:85:36:56:c6:ec:00:9f:e8:
         64:2f:b2:a3:09:3e:73:8f:32:d6:3f:ba:84:ff:5d:06:87:4b:
         58:b0:40:5a:fb:7f:38:ab:e0:70:f2:01:d5:05:b5:da:69:8a:
         33:29:7f:0e:11:c4:98:9c:ed:cb:d8:24:47:9e:bb:b2:6e:fe:
         2f:f4:e8:81:ed:a5:65:8a:48:95:0c:78:d8:b7:39:a1:31:8d:
         7b:3b:4b:4a:bf:05:6d:a1:81:08:24:29:5f:95:41:38:30:23:
         14:ab:89:9c:02:d3:ce:e6:fe:23:1e:d9:89:b0:8b:c7:b8:68:
         13:2b:3d:a4:ca:ec:88:9e:3c:db:fb:1d:af:53:5a:b1:4e:26:
         1b:51:42:6f:f8:ef:c0:1b:a4:05:6b:25:3a:21:5e:e9:e1:75:
         7d:d5:fc:2f:bc:a0:85:ac
-----BEGIN CERTIFICATE-----
MIIFITCCAwmgAwIBAgIBDDANBgkqhkiG9w0BAQsFADCBhzELMAkGA1UEBhMCSU4x
DjAMBgNVBAgMBURlbGhpMQ4wDAYDVQQHDAVEZWxoaTEOMAwGA1UECgwFSUlJVEQx
CzAJBgNVBAsMAk5TMREwDwYDVQQDDAhBbnNodW1hbjEoMCYGCSqGSIb3DQEJARYZ
YW5zaHVtYW4xNDAyMUBpaWl0ZC5hYy5pbjAeFw0xNjExMjAxNzM5MTlaFw0xOTA4
MTcxNzM5MTlaMEgxCzAJBgNVBAYTAklOMQ4wDAYDVQQIDAVEZWxoaTEMMAoGA1UE
BwwDTkNSMQ4wDAYDVQQKDAVJSUlURDELMAkGA1UEAwwCTlMwggEiMA0GCSqGSIb3
DQEBAQUAA4IBDwAwggEKAoIBAQDtZqexdflKVZN57yRyw0lAjVoyNoR+b1mL5Wyo
cma2EknglQ7DFxgzdMA85lH4PlCft7LHD4GFEKxaHkgCg5q4i4tNnG9jyubkd2Ap
rBZ2gqBL5yW+HzCGlijpj+fzq3UpS2byk4fMGut4RqAt0ladjUlMx/CraH56zUC1
9QP0yKR/FFiIKVY8Hhq3X0NQoW697i6Y1UteRyFIfswt9hvFfPfcMHgjHv0xEbyI
bGoYpHH5pXcmMDCe6fEr9VePQd44eVMRLOeqBejLXbEJGBekHu4/3qr/RY/Xk2P/
qgaFQV9iX/zO1TNirueL0Pn3tcVGV7wIqxGU2Jir7LcP28IpAgMBAAGjgdUwgdIw
HQYDVR0OBBYEFBrXqjthiIImMjC3SmI3PVlGaqsaMB8GA1UdIwQYMBaAFGQEa1Ns
AWBXoEf6y5gCLW8BmhDDMAkGA1UdEwQCMAAwCwYDVR0PBAQDAgWgMEoGA1UdEQRD
MEGCC2V4YW1wbGUuY29tgg93d3cuZXhhbXBsZS5jb22CEG1haWwuZXhhbXBsZS5j
b22CD2Z0cC5leGFtcGxlLmNvbTAsBglghkgBhvhCAQ0EHxYdT3BlblNTTCBHZW5l
cmF0ZWQgQ2VydGlmaWNhdGUwDQYJKoZIhvcNAQELBQADggIBAGH+/1eDpsvqHKMK
LbAgkg8GWB6EjEEWGTCNlBvWbprFY/C7UzdzhTWps7B3rF5YGf48RTLHZKykWD9y
8ZlLKSSA06ItOjxHaaYTRP9T/Jp/FOaNmaHJlKpULVYR8pOQSyauYdcM5vBOd+uM
qDjaKtUm763/uxNiWhwhbQLYh2sfU+psGEz14m+GIAfcwVt24WwABwCCSaDvIqPL
YE1F5LKkwASyRZkt2CKxbpuF2zusrpYxGS1/9a3gIT5z06idXl8eqmtAxfbADGbm
zvtiTuPEOE5nj6YLAWFNr9ArKRxJpemA2IULfJmzLGA99YxAOpRvlq8vWPoTNmV3
Ftdoq4Ese11inW1XsUtX5UOWYGUbd0VG0Nhrrzt3VIDaXEs3zfYlgJfaUHpG4O35
a3H7h4eOWaKTVgYgbHnC0GLsfWsji9OeDbnsyYVvRR62TnpgnTdduifrNj2NW8oQ
mkxOgoiFNlbG7ACf6GQvsqMJPnOPMtY/uoT/XQaHS1iwQFr7fzir4HDyAdUFtdpp
ijMpfw4RxJic7cvYJEeeu7Ju/i/06IHtpWWKSJUMeNi3OaExjXs7S0q/BW2hgQgk
KV+VQTgwIxSriZwC087m/iMe2Ymwi8e4aBMrPaTK7IiePNv7Ha9TWrFOJhtRQm/4
78AbpAVrJTohXunhdX3V/C+8oIWs
-----END CERTIFICATE-----
