Certificate:
    Data:
        Version: 3 (0x2)
        Serial Number: 13 (0xd)
    Signature Algorithm: sha256WithRSAEncryption
        Issuer: C=IN, ST=Delhi, L=Delhi, O=IIITD, OU=NS, CN=Anshuman/emailAddress=anshuman14021@iiitd.ac.in
        Validity
            Not Before: Nov 20 17:41:28 2016 GMT
            Not After : Aug 17 17:41:28 2019 GMT
        Subject: C=IN, ST=Delhi, L=NCR, O=IIITD, CN=NS
        Subject Public Key Info:
            Public Key Algorithm: rsaEncryption
                Public-Key: (2048 bit)
                Modulus:
                    00:af:e6:94:4d:d1:49:d5:ec:2a:7b:b1:9e:5d:5d:
                    ec:c0:64:31:c3:ee:c4:6c:62:6a:01:23:cc:de:4d:
                    7e:6b:81:a8:19:94:67:5b:32:62:68:a3:6e:19:9f:
                    19:b6:2a:77:b3:1c:64:2f:e5:20:7e:04:fb:11:df:
                    80:17:9d:97:3f:9d:9c:0f:3f:5b:79:6d:f5:20:e0:
                    1b:da:f6:0e:35:10:a0:15:7b:02:07:15:bb:29:84:
                    80:a3:01:f4:b7:d9:26:91:6b:e5:a6:db:d7:5b:ec:
                    f4:31:61:a7:3a:bb:c6:0c:0b:19:2d:da:ee:5a:7a:
                    aa:b4:1f:be:4e:8a:92:06:85:0b:ed:9b:29:9a:c3:
                    a4:47:2d:49:0e:66:7b:31:3f:4c:9f:77:3c:8a:80:
                    47:0a:de:b7:cf:c2:6f:37:5b:fb:67:a6:42:9b:e5:
                    32:86:9c:95:fa:e2:a3:aa:9f:09:70:a4:87:64:92:
                    8d:a1:d3:15:04:8c:05:3c:f6:36:01:55:cb:2d:bb:
                    60:5f:d6:8f:0f:9c:1a:1a:92:1d:af:c1:bb:bf:5c:
                    7c:e7:27:ec:81:3e:7f:d1:4b:ea:0c:f5:8b:54:7c:
                    48:ea:4a:6b:9b:73:38:12:35:92:96:66:db:68:40:
                    64:3b:c0:f7:39:93:bd:c9:18:2f:39:04:04:c9:14:
                    43:39
                Exponent: 65537 (0x10001)
        X509v3 extensions:
            X509v3 Subject Key Identifier: 
                4A:BA:03:4D:29:1B:35:3A:21:42:2B:58:6F:09:45:2C:24:C0:84:FB
            X509v3 Authority Key Identifier: 
                keyid:64:04:6B:53:6C:01:60:57:A0:47:FA:CB:98:02:2D:6F:01:9A:10:C3

            X509v3 Basic Constraints: 
                CA:FALSE
            X509v3 Key Usage: 
                Digital Signature, Key Encipherment
            X509v3 Subject Alternative Name: 
                DNS:example.com, DNS:www.example.com, DNS:mail.example.com, DNS:ftp.example.com
            Netscape Comment: 
                OpenSSL Generated Certificate
    Signature Algorithm: sha256WithRSAEncryption
         39:6c:73:c5:12:02:b6:f9:8f:89:1a:c1:27:d4:b3:6e:b1:39:
         9d:87:06:0c:21:11:e3:05:77:88:82:e3:fc:21:12:4a:c2:3f:
         2a:51:ee:37:ab:9c:db:01:0c:64:20:fe:e4:51:09:28:16:bb:
         ee:26:cb:29:ee:24:29:8b:00:e6:cc:3c:f8:57:5e:7d:de:c8:
         b1:69:42:e2:f3:34:8d:61:40:b0:ef:c1:d6:fb:74:fb:65:a8:
         9d:0f:aa:9f:a8:3a:6d:ce:24:5d:15:ba:fb:3e:c0:3c:65:25:
         08:21:c2:a2:13:78:64:f7:92:33:70:2c:c5:17:38:b1:d2:9d:
         f5:38:0f:3e:bd:81:e4:bf:0f:26:23:30:24:c0:0a:90:f1:bf:
         3e:59:b6:36:49:dc:a3:59:67:af:90:c0:6b:81:50:c9:87:02:
         6e:44:e1:45:0f:7a:ea:36:5f:e3:ff:0c:9e:2d:da:c9:4a:74:
         d0:19:62:64:d7:c9:6d:59:5f:07:a9:12:a8:50:b7:a7:53:70:
         b7:00:60:8b:c5:e1:e9:ca:67:ed:0d:32:c9:8d:27:72:88:36:
         ba:b7:4d:0f:9a:05:a0:3a:c3:58:ae:4b:87:54:66:b9:96:44:
         14:58:93:83:d2:5f:b7:62:99:cf:e2:cf:e8:6d:1a:c9:9a:55:
         bc:33:65:ea:17:59:13:ce:b2:f0:19:07:a2:ad:e8:19:6c:ef:
         62:0c:00:3f:b5:4a:7b:41:e7:fb:5d:2d:2d:1e:d9:fd:66:f3:
         29:3e:cf:27:4b:53:36:58:fc:52:32:4e:da:a9:2c:e9:d9:9b:
         ec:8d:f8:63:9c:39:95:db:8f:03:81:09:f9:60:bc:14:b3:cf:
         3f:88:66:33:4d:c9:b4:de:26:05:39:30:a6:8e:5e:29:99:3e:
         a0:58:e8:8d:a6:07:f9:3f:f0:9f:91:9a:c9:98:9c:2a:1b:be:
         45:0b:fd:7f:2f:92:a2:3d:d8:0c:0a:cc:19:d7:23:e7:b5:ad:
         0d:15:c7:cf:e0:72:94:3d:d1:19:6b:65:82:37:c6:20:38:68:
         ad:ec:55:95:be:3d:1b:1e:0c:9a:40:28:a7:79:ee:c6:99:95:
         d1:cd:21:a1:f7:e8:b8:dc:c0:d7:38:cf:71:f9:bb:80:7f:85:
         2b:e1:22:10:dc:58:07:ec:0a:43:89:e4:f2:59:43:0c:76:8f:
         44:fd:ca:d4:19:79:d1:e9:da:c7:fd:6b:7a:af:b1:cb:e8:fd:
         ea:e1:23:ad:64:eb:10:da:f2:3d:cb:aa:06:24:c0:11:2b:56:
         18:e8:6b:e5:65:b2:13:e7:3d:ab:a8:72:1a:ff:23:a7:b2:d7:
         0f:4f:d4:e1:3e:48:1e:22
-----BEGIN CERTIFICATE-----
MIIFITCCAwmgAwIBAgIBDTANBgkqhkiG9w0BAQsFADCBhzELMAkGA1UEBhMCSU4x
DjAMBgNVBAgMBURlbGhpMQ4wDAYDVQQHDAVEZWxoaTEOMAwGA1UECgwFSUlJVEQx
CzAJBgNVBAsMAk5TMREwDwYDVQQDDAhBbnNodW1hbjEoMCYGCSqGSIb3DQEJARYZ
YW5zaHVtYW4xNDAyMUBpaWl0ZC5hYy5pbjAeFw0xNjExMjAxNzQxMjhaFw0xOTA4
MTcxNzQxMjhaMEgxCzAJBgNVBAYTAklOMQ4wDAYDVQQIDAVEZWxoaTEMMAoGA1UE
BwwDTkNSMQ4wDAYDVQQKDAVJSUlURDELMAkGA1UEAwwCTlMwggEiMA0GCSqGSIb3
DQEBAQUAA4IBDwAwggEKAoIBAQCv5pRN0UnV7Cp7sZ5dXezAZDHD7sRsYmoBI8ze
TX5rgagZlGdbMmJoo24Znxm2KnezHGQv5SB+BPsR34AXnZc/nZwPP1t5bfUg4Bva
9g41EKAVewIHFbsphICjAfS32SaRa+Wm29db7PQxYac6u8YMCxkt2u5aeqq0H75O
ipIGhQvtmymaw6RHLUkOZnsxP0yfdzyKgEcK3rfPwm83W/tnpkKb5TKGnJX64qOq
nwlwpIdkko2h0xUEjAU89jYBVcstu2Bf1o8PnBoakh2vwbu/XHznJ+yBPn/RS+oM
9YtUfEjqSmubczgSNZKWZttoQGQ7wPc5k73JGC85BATJFEM5AgMBAAGjgdUwgdIw
HQYDVR0OBBYEFEq6A00pGzU6IUIrWG8JRSwkwIT7MB8GA1UdIwQYMBaAFGQEa1Ns
AWBXoEf6y5gCLW8BmhDDMAkGA1UdEwQCMAAwCwYDVR0PBAQDAgWgMEoGA1UdEQRD
MEGCC2V4YW1wbGUuY29tgg93d3cuZXhhbXBsZS5jb22CEG1haWwuZXhhbXBsZS5j
b22CD2Z0cC5leGFtcGxlLmNvbTAsBglghkgBhvhCAQ0EHxYdT3BlblNTTCBHZW5l
cmF0ZWQgQ2VydGlmaWNhdGUwDQYJKoZIhvcNAQELBQADggIBADlsc8USArb5j4ka
wSfUs26xOZ2HBgwhEeMFd4iC4/whEkrCPypR7jernNsBDGQg/uRRCSgWu+4myynu
JCmLAObMPPhXXn3eyLFpQuLzNI1hQLDvwdb7dPtlqJ0Pqp+oOm3OJF0Vuvs+wDxl
JQghwqITeGT3kjNwLMUXOLHSnfU4Dz69geS/DyYjMCTACpDxvz5ZtjZJ3KNZZ6+Q
wGuBUMmHAm5E4UUPeuo2X+P/DJ4t2slKdNAZYmTXyW1ZXwepEqhQt6dTcLcAYIvF
4enKZ+0NMsmNJ3KINrq3TQ+aBaA6w1iuS4dUZrmWRBRYk4PSX7dimc/iz+htGsma
VbwzZeoXWRPOsvAZB6Kt6Bls72IMAD+1SntB5/tdLS0e2f1m8yk+zydLUzZY/FIy
TtqpLOnZm+yN+GOcOZXbjwOBCflgvBSzzz+IZjNNybTeJgU5MKaOXimZPqBY6I2m
B/k/8J+RmsmYnCobvkUL/X8vkqI92AwKzBnXI+e1rQ0Vx8/gcpQ90RlrZYI3xiA4
aK3sVZW+PRseDJpAKKd57saZldHNIaH36LjcwNc4z3H5u4B/hSvhIhDcWAfsCkOJ
5PJZQwx2j0T9ytQZedHp2sf9a3qvscvo/erhI61k6xDa8j3LqgYkwBErVhjoa+Vl
shPnPauochr/I6ey1w9P1OE+SB4i
-----END CERTIFICATE-----
