Certificate:
    Data:
        Version: 3 (0x2)
        Serial Number: 14 (0xe)
    Signature Algorithm: sha256WithRSAEncryption
        Issuer: C=IN, ST=Delhi, L=Delhi, O=IIITD, OU=NS, CN=Anshuman/emailAddress=anshuman14021@iiitd.ac.in
        Validity
            Not Before: Nov 20 17:43:10 2016 GMT
            Not After : Aug 17 17:43:10 2019 GMT
        Subject: C=IN, ST=Delhi, L=NCR, O=IIITD, CN=NS
        Subject Public Key Info:
            Public Key Algorithm: rsaEncryption
                Public-Key: (2048 bit)
                Modulus:
                    00:c6:f9:e0:eb:5f:15:ad:5c:85:6f:39:0d:aa:0a:
                    33:0e:21:71:da:8b:21:18:4f:65:70:2a:91:f8:56:
                    2f:60:64:95:62:d6:72:15:80:15:28:3e:2a:88:6e:
                    2b:28:96:e4:c4:df:6a:61:40:69:0b:07:64:1d:6c:
                    9a:37:d3:d2:aa:b9:65:bf:cf:73:76:49:38:49:42:
                    b9:68:70:77:da:ff:47:77:ce:7e:18:0a:b0:52:24:
                    50:51:aa:59:9a:ff:a4:d4:00:de:b2:03:a6:a8:8d:
                    c7:39:80:1e:ee:59:e5:1b:6f:63:21:be:80:36:ed:
                    b8:9e:39:52:be:aa:85:20:5f:d0:7c:c4:9d:0b:1b:
                    45:bf:b7:c8:b1:d4:ec:9f:be:64:d8:14:73:6b:24:
                    d3:7b:5b:5c:95:32:c0:40:36:e2:39:d3:ed:1a:4b:
                    4c:a8:58:e4:6d:e5:dc:55:2a:7b:37:f9:15:f5:7c:
                    09:96:7f:a1:34:55:94:4f:bb:74:5e:94:20:40:54:
                    26:34:f8:ee:b3:ad:81:ae:cd:cd:48:ec:a5:16:53:
                    d6:b2:5e:df:17:58:f2:20:48:f6:72:be:cd:4f:9f:
                    50:27:8d:c8:44:73:39:31:1c:92:3d:d0:ac:9d:62:
                    43:5b:e0:5c:2c:cd:47:f3:ca:30:b2:52:77:59:a0:
                    bf:5b
                Exponent: 65537 (0x10001)
        X509v3 extensions:
            X509v3 Subject Key Identifier: 
                6B:98:18:82:AA:0E:94:84:7F:F2:7C:C4:67:D5:F7:60:0C:37:F9:C1
            X509v3 Authority Key Identifier: 
                keyid:64:04:6B:53:6C:01:60:57:A0:47:FA:CB:98:02:2D:6F:01:9A:10:C3

            X509v3 Basic Constraints: 
                CA:FALSE
            X509v3 Key Usage: 
                Digital Signature, Key Encipherment
            X509v3 Subject Alternative Name: 
                DNS:example.com, DNS:www.example.com, DNS:mail.example.com, DNS:ftp.example.com
            Netscape Comment: 
                OpenSSL Generated Certificate
    Signature Algorithm: sha256WithRSAEncryption
         4d:ca:c0:3f:1e:07:81:68:f7:5d:f6:4a:6d:93:88:2c:c9:e7:
         38:e7:15:0e:9d:d1:74:a4:5e:94:f3:17:9d:b1:9d:4b:e6:9d:
         f6:00:dc:d3:ae:15:06:ba:6d:8b:d3:c0:91:ee:1d:bc:c2:5a:
         8a:59:53:e1:3c:00:25:7e:67:9e:7a:ae:dc:6e:10:fa:95:f6:
         0d:f3:a5:b8:98:1d:e8:ba:4c:a0:0a:a3:63:32:fd:c8:ae:94:
         de:6d:fd:8c:0d:aa:ee:0f:6a:a5:de:d6:dc:83:fe:d7:b5:f7:
         62:dc:d0:ab:9d:7c:d5:ff:fc:5f:8e:d3:1d:00:0e:fc:8a:d7:
         6e:f4:da:54:62:04:c0:93:7c:4f:b8:10:30:d8:9a:b1:a3:ff:
         a3:54:f6:0f:8a:5d:ca:01:f7:05:f8:ee:cc:fb:5f:18:85:b2:
         72:0e:22:5b:9f:7e:f2:30:bd:96:ff:a7:9d:4c:cf:63:fc:03:
         3c:d5:d1:a5:db:cc:0d:4a:89:a1:30:a0:c7:4c:23:dd:b7:8d:
         36:37:83:e7:72:c1:d0:94:89:8f:cc:83:cb:cc:e2:2c:bf:b3:
         bb:e8:73:e4:9b:cd:b7:f5:c4:47:e3:dd:30:3c:fe:fe:7a:ca:
         a5:2b:81:a4:8a:94:7f:13:ee:e1:1a:3f:3f:b6:b6:38:1d:4b:
         13:f0:a9:89:cf:c5:c3:5a:7b:ac:29:dc:a9:59:04:6c:6b:7b:
         bc:bf:1e:7a:9e:b9:bb:2a:4c:49:26:05:87:42:8c:ea:32:61:
         9b:33:e2:fc:f1:4e:1f:b1:a7:c0:51:36:af:cf:91:05:10:81:
         06:bf:32:60:01:f0:41:20:7f:61:e8:90:56:76:ce:63:ac:82:
         ce:16:33:cc:f6:ae:67:8d:34:17:ba:e8:5d:af:b2:b6:70:aa:
         b2:d9:03:98:d8:97:71:b1:ea:a1:3e:39:a9:e2:d4:01:e5:56:
         aa:77:b7:e2:95:6f:88:6f:23:a7:f0:34:2f:79:78:13:42:20:
         bd:5e:87:84:cc:d2:1d:66:2f:b6:07:f1:b8:a6:86:79:4a:2d:
         17:8f:78:65:99:76:b8:dc:e1:e6:47:d1:75:a0:23:c6:5a:0e:
         24:d5:8a:bd:b8:c4:44:55:51:b4:29:8e:b5:ac:46:d5:c2:06:
         e1:83:4d:db:e0:e5:50:89:b5:94:a0:f6:d6:ea:e0:18:d1:47:
         45:8e:2d:b6:cb:48:e9:3d:b1:e9:86:13:f1:c8:de:46:46:fe:
         49:09:e3:2e:f8:26:10:c5:59:62:b5:19:0f:49:c9:63:8e:69:
         57:cb:41:66:23:c1:33:a1:06:20:da:45:96:26:0f:87:ea:53:
         8c:83:f2:6e:7f:3e:46:42
-----BEGIN CERTIFICATE-----
MIIFITCCAwmgAwIBAgIBDjANBgkqhkiG9w0BAQsFADCBhzELMAkGA1UEBhMCSU4x
DjAMBgNVBAgMBURlbGhpMQ4wDAYDVQQHDAVEZWxoaTEOMAwGA1UECgwFSUlJVEQx
CzAJBgNVBAsMAk5TMREwDwYDVQQDDAhBbnNodW1hbjEoMCYGCSqGSIb3DQEJARYZ
YW5zaHVtYW4xNDAyMUBpaWl0ZC5hYy5pbjAeFw0xNjExMjAxNzQzMTBaFw0xOTA4
MTcxNzQzMTBaMEgxCzAJBgNVBAYTAklOMQ4wDAYDVQQIDAVEZWxoaTEMMAoGA1UE
BwwDTkNSMQ4wDAYDVQQKDAVJSUlURDELMAkGA1UEAwwCTlMwggEiMA0GCSqGSIb3
DQEBAQUAA4IBDwAwggEKAoIBAQDG+eDrXxWtXIVvOQ2qCjMOIXHaiyEYT2VwKpH4
Vi9gZJVi1nIVgBUoPiqIbisoluTE32phQGkLB2QdbJo309KquWW/z3N2SThJQrlo
cHfa/0d3zn4YCrBSJFBRqlma/6TUAN6yA6aojcc5gB7uWeUbb2MhvoA27bieOVK+
qoUgX9B8xJ0LG0W/t8ix1OyfvmTYFHNrJNN7W1yVMsBANuI50+0aS0yoWORt5dxV
Kns3+RX1fAmWf6E0VZRPu3RelCBAVCY0+O6zrYGuzc1I7KUWU9ayXt8XWPIgSPZy
vs1Pn1AnjchEczkxHJI90KydYkNb4FwszUfzyjCyUndZoL9bAgMBAAGjgdUwgdIw
HQYDVR0OBBYEFGuYGIKqDpSEf/J8xGfV92AMN/nBMB8GA1UdIwQYMBaAFGQEa1Ns
AWBXoEf6y5gCLW8BmhDDMAkGA1UdEwQCMAAwCwYDVR0PBAQDAgWgMEoGA1UdEQRD
MEGCC2V4YW1wbGUuY29tgg93d3cuZXhhbXBsZS5jb22CEG1haWwuZXhhbXBsZS5j
b22CD2Z0cC5leGFtcGxlLmNvbTAsBglghkgBhvhCAQ0EHxYdT3BlblNTTCBHZW5l
cmF0ZWQgQ2VydGlmaWNhdGUwDQYJKoZIhvcNAQELBQADggIBAE3KwD8eB4Fo9132
Sm2TiCzJ5zjnFQ6d0XSkXpTzF52xnUvmnfYA3NOuFQa6bYvTwJHuHbzCWopZU+E8
ACV+Z556rtxuEPqV9g3zpbiYHei6TKAKo2My/ciulN5t/YwNqu4PaqXe1tyD/te1
92Lc0KudfNX//F+O0x0ADvyK12702lRiBMCTfE+4EDDYmrGj/6NU9g+KXcoB9wX4
7sz7XxiFsnIOIluffvIwvZb/p51Mz2P8AzzV0aXbzA1KiaEwoMdMI923jTY3g+dy
wdCUiY/Mg8vM4iy/s7voc+Sbzbf1xEfj3TA8/v56yqUrgaSKlH8T7uEaPz+2tjgd
SxPwqYnPxcNae6wp3KlZBGxre7y/HnqeubsqTEkmBYdCjOoyYZsz4vzxTh+xp8BR
Nq/PkQUQgQa/MmAB8EEgf2HokFZ2zmOsgs4WM8z2rmeNNBe66F2vsrZwqrLZA5jY
l3Gx6qE+Oani1AHlVqp3t+KVb4hvI6fwNC95eBNCIL1eh4TM0h1mL7YH8bimhnlK
LRePeGWZdrjc4eZH0XWgI8ZaDiTVir24xERVUbQpjrWsRtXCBuGDTdvg5VCJtZSg
9tbq4BjRR0WOLbbLSOk9semGE/HI3kZG/kkJ4y74JhDFWWK1GQ9JyWOOaVfLQWYj
wTOhBiDaRZYmD4fqU4yD8m5/PkZC
-----END CERTIFICATE-----
