Certificate:
    Data:
        Version: 3 (0x2)
        Serial Number: 15 (0xf)
    Signature Algorithm: sha256WithRSAEncryption
        Issuer: C=IN, ST=Delhi, L=Delhi, O=IIITD, OU=NS, CN=Anshuman/emailAddress=anshuman14021@iiitd.ac.in
        Validity
            Not Before: Nov 20 17:44:51 2016 GMT
            Not After : Aug 17 17:44:51 2019 GMT
        Subject: C=IN, ST=Delhi, L=NCR, O=IIITD, CN=NS
        Subject Public Key Info:
            Public Key Algorithm: rsaEncryption
                Public-Key: (2048 bit)
                Modulus:
                    00:a1:fc:5c:8d:2c:d4:26:ab:06:87:fa:2e:4f:fd:
                    24:5d:dd:36:99:54:f2:80:d9:a5:c6:51:40:3e:7d:
                    e8:3e:15:33:bc:93:64:49:31:90:00:46:62:ab:e3:
                    25:ed:fe:18:c7:93:aa:1c:9c:3f:1b:8f:5d:85:e6:
                    33:82:b9:0a:d3:52:8c:53:65:1d:8d:a0:86:29:31:
                    f9:8b:48:0c:3d:60:49:34:3e:ed:b6:92:a5:06:61:
                    00:11:55:fb:dd:a8:5a:8c:70:74:8d:f8:c3:c6:1b:
                    7b:3d:f3:7b:c7:35:3c:60:f8:2a:e2:bd:ed:8f:2a:
                    8c:0c:ab:20:dc:50:d5:79:c3:da:7f:6e:c7:e4:61:
                    91:bf:f8:5a:63:f2:83:48:e0:55:61:d7:7f:b1:57:
                    fa:a4:47:b0:13:a2:68:51:95:3d:7d:1f:40:64:99:
                    cc:62:48:34:ad:ad:46:2f:5a:ef:44:13:ff:91:22:
                    bf:eb:85:06:52:fc:7e:76:d3:aa:5d:05:88:ca:19:
                    a5:52:46:df:d3:52:28:20:9d:f0:4c:52:67:0b:30:
                    73:b5:bf:1f:6d:80:75:c8:96:0b:b1:d9:cb:fd:e2:
                    4c:f6:6a:b6:d1:2d:a9:de:b9:33:f6:52:51:8e:c8:
                    8f:63:ae:af:c7:4c:ef:9a:fb:e8:51:a5:84:1c:4f:
                    cc:41
                Exponent: 65537 (0x10001)
        X509v3 extensions:
            X509v3 Subject Key Identifier: 
                EC:B0:59:C9:8F:06:57:E7:4C:8A:A6:AC:B1:1B:E1:37:CA:B8:4E:F5
            X509v3 Authority Key Identifier: 
                keyid:64:04:6B:53:6C:01:60:57:A0:47:FA:CB:98:02:2D:6F:01:9A:10:C3

            X509v3 Basic Constraints: 
                CA:FALSE
            X509v3 Key Usage: 
                Digital Signature, Key Encipherment
            X509v3 Subject Alternative Name: 
                DNS:example.com, DNS:www.example.com, DNS:mail.example.com, DNS:ftp.example.com
            Netscape Comment: 
                OpenSSL Generated Certificate
    Signature Algorithm: sha256WithRSAEncryption
         99:6f:76:4c:c5:5c:a2:3c:7a:fc:ce:a1:0b:26:57:3d:1d:c8:
         05:09:5c:01:f9:3b:f4:95:98:cf:02:57:be:5e:a6:b0:27:0c:
         2d:9a:3a:a5:54:84:a3:6a:39:29:49:7c:94:4a:a8:6d:54:6e:
         17:40:fd:ed:7b:d3:ad:78:81:61:23:ad:b0:e7:47:46:c2:c0:
         af:f4:92:da:5b:48:d2:4e:4e:28:1b:fd:a2:fc:49:fd:95:25:
         a5:2b:81:e7:14:81:64:b4:fc:ec:1d:b9:3c:a5:81:5c:ec:ec:
         18:2a:f7:17:25:be:94:61:10:fd:5c:75:79:c6:9c:c8:65:29:
         35:b2:a9:dd:48:9e:93:35:84:d6:8f:9c:d7:39:fa:7e:44:36:
         49:ea:52:ed:f4:a0:21:4a:68:de:de:13:30:c0:21:7e:c5:df:
         e0:e8:7f:b7:d6:c6:20:b1:17:01:7b:05:35:77:6c:31:41:38:
         3d:43:d3:5e:19:e0:30:88:2f:67:bb:48:cd:1a:90:3d:1c:4d:
         3a:98:e5:78:2b:30:a1:af:dc:21:17:db:40:b5:14:3b:a8:73:
         7d:3c:c2:62:35:78:4d:65:88:1f:2d:d1:c0:54:cb:b8:d7:d2:
         49:89:1d:13:cf:8d:65:ae:56:f9:f1:19:72:28:80:82:37:00:
         a8:58:12:d3:6f:d1:a3:7e:28:b5:23:74:a1:ab:f6:77:28:65:
         f3:cb:7f:a0:29:4b:15:04:3a:2a:e7:fe:1d:63:21:28:5f:6f:
         03:01:05:b4:6c:86:6b:54:aa:55:43:f9:12:dc:54:e3:4a:63:
         54:28:65:10:96:0e:8e:9b:19:48:d7:a2:ba:13:fa:76:3f:26:
         96:15:9a:5f:fc:10:47:1e:1a:6f:11:e1:f6:f3:bf:c6:bd:5c:
         ff:f5:2a:4b:ba:e8:68:23:62:3f:df:e9:34:42:69:45:05:75:
         c6:3a:4a:7f:e3:51:1a:32:4c:69:dd:40:41:63:ea:e3:05:f1:
         c3:6c:13:33:77:ec:e2:24:bf:22:7c:88:45:f4:a4:f6:dc:32:
         1a:0a:ce:b9:b9:4d:39:ac:70:da:49:7f:85:91:c0:cc:6e:1c:
         fa:a5:9a:d0:9b:86:7c:f3:c9:89:4a:07:a4:fd:ff:b1:18:68:
         c0:a1:ea:4d:51:d1:56:80:3e:98:2b:37:4f:90:06:a7:b6:2f:
         df:90:69:d1:77:e4:c8:bd:04:57:7b:6b:6d:45:51:9b:2a:3d:
         c4:b2:04:5c:f1:b3:72:fa:72:8f:1e:09:c1:67:53:6b:f9:08:
         90:e9:05:a6:89:42:f2:ec:22:ad:b6:56:fd:f1:da:a3:17:2a:
         31:6b:6e:6b:15:2f:55:68
-----BEGIN CERTIFICATE-----
MIIFITCCAwmgAwIBAgIBDzANBgkqhkiG9w0BAQsFADCBhzELMAkGA1UEBhMCSU4x
DjAMBgNVBAgMBURlbGhpMQ4wDAYDVQQHDAVEZWxoaTEOMAwGA1UECgwFSUlJVEQx
CzAJBgNVBAsMAk5TMREwDwYDVQQDDAhBbnNodW1hbjEoMCYGCSqGSIb3DQEJARYZ
YW5zaHVtYW4xNDAyMUBpaWl0ZC5hYy5pbjAeFw0xNjExMjAxNzQ0NTFaFw0xOTA4
MTcxNzQ0NTFaMEgxCzAJBgNVBAYTAklOMQ4wDAYDVQQIDAVEZWxoaTEMMAoGA1UE
BwwDTkNSMQ4wDAYDVQQKDAVJSUlURDELMAkGA1UEAwwCTlMwggEiMA0GCSqGSIb3
DQEBAQUAA4IBDwAwggEKAoIBAQCh/FyNLNQmqwaH+i5P/SRd3TaZVPKA2aXGUUA+
feg+FTO8k2RJMZAARmKr4yXt/hjHk6ocnD8bj12F5jOCuQrTUoxTZR2NoIYpMfmL
SAw9YEk0Pu22kqUGYQARVfvdqFqMcHSN+MPGG3s983vHNTxg+Crive2PKowMqyDc
UNV5w9p/bsfkYZG/+Fpj8oNI4FVh13+xV/qkR7ATomhRlT19H0BkmcxiSDStrUYv
Wu9EE/+RIr/rhQZS/H5206pdBYjKGaVSRt/TUiggnfBMUmcLMHO1vx9tgHXIlgux
2cv94kz2arbRLaneuTP2UlGOyI9jrq/HTO+a++hRpYQcT8xBAgMBAAGjgdUwgdIw
HQYDVR0OBBYEFOywWcmPBlfnTIqmrLEb4TfKuE71MB8GA1UdIwQYMBaAFGQEa1Ns
AWBXoEf6y5gCLW8BmhDDMAkGA1UdEwQCMAAwCwYDVR0PBAQDAgWgMEoGA1UdEQRD
MEGCC2V4YW1wbGUuY29tgg93d3cuZXhhbXBsZS5jb22CEG1haWwuZXhhbXBsZS5j
b22CD2Z0cC5leGFtcGxlLmNvbTAsBglghkgBhvhCAQ0EHxYdT3BlblNTTCBHZW5l
cmF0ZWQgQ2VydGlmaWNhdGUwDQYJKoZIhvcNAQELBQADggIBAJlvdkzFXKI8evzO
oQsmVz0dyAUJXAH5O/SVmM8CV75eprAnDC2aOqVUhKNqOSlJfJRKqG1UbhdA/e17
0614gWEjrbDnR0bCwK/0ktpbSNJOTigb/aL8Sf2VJaUrgecUgWS0/OwduTylgVzs
7Bgq9xclvpRhEP1cdXnGnMhlKTWyqd1InpM1hNaPnNc5+n5ENknqUu30oCFKaN7e
EzDAIX7F3+Dof7fWxiCxFwF7BTV3bDFBOD1D014Z4DCIL2e7SM0akD0cTTqY5Xgr
MKGv3CEX20C1FDuoc308wmI1eE1liB8t0cBUy7jX0kmJHRPPjWWuVvnxGXIogII3
AKhYEtNv0aN+KLUjdKGr9ncoZfPLf6ApSxUEOirn/h1jIShfbwMBBbRshmtUqlVD
+RLcVONKY1QoZRCWDo6bGUjXoroT+nY/JpYVml/8EEceGm8R4fbzv8a9XP/1Kku6
6GgjYj/f6TRCaUUFdcY6Sn/jURoyTGndQEFj6uMF8cNsEzN37OIkvyJ8iEX0pPbc
MhoKzrm5TTmscNpJf4WRwMxuHPqlmtCbhnzzyYlKB6T9/7EYaMCh6k1R0VaAPpgr
N0+QBqe2L9+QadF35Mi9BFd7a21FUZsqPcSyBFzxs3L6co8eCcFnU2v5CJDpBaaJ
QvLsIq22Vv3x2qMXKjFrbmsVL1Vo
-----END CERTIFICATE-----
