Certificate:
    Data:
        Version: 3 (0x2)
        Serial Number: 16 (0x10)
    Signature Algorithm: sha256WithRSAEncryption
        Issuer: C=IN, ST=Delhi, L=Delhi, O=IIITD, OU=NS, CN=Anshuman/emailAddress=anshuman14021@iiitd.ac.in
        Validity
            Not Before: Nov 20 17:45:29 2016 GMT
            Not After : Aug 17 17:45:29 2019 GMT
        Subject: C=IN, ST=Delhi, L=NCR, O=IIITD, CN=NS
        Subject Public Key Info:
            Public Key Algorithm: rsaEncryption
                Public-Key: (2048 bit)
                Modulus:
                    00:de:e4:c0:d6:86:95:39:fb:94:eb:6b:25:3a:ce:
                    e2:60:d7:27:01:3c:b9:31:fc:22:6b:c0:d9:d3:83:
                    f8:cc:9e:14:0f:8c:a4:9b:ff:19:51:1a:3e:1e:04:
                    71:8a:5f:92:90:4e:07:3e:0b:36:9a:d8:ff:dc:a3:
                    53:b3:35:c6:1e:4c:18:35:d0:03:43:c8:3e:3d:3a:
                    67:bb:17:56:00:12:d3:9e:35:f3:84:de:f3:6a:6c:
                    cb:dd:6c:fa:87:e5:9b:fd:bc:5e:e8:5d:18:20:bd:
                    4e:03:38:62:35:35:b4:4f:79:11:bf:07:b4:41:13:
                    45:bc:80:d1:0e:b7:cd:3d:19:c7:fa:fe:9a:9a:f8:
                    39:eb:10:36:0e:ad:97:ca:77:be:80:5a:a9:e4:3f:
                    b1:16:9d:d8:b4:87:72:ab:82:07:3c:a2:f0:48:47:
                    ed:a2:e5:e6:b1:3f:10:59:02:47:d5:2c:04:e5:57:
                    87:85:f8:7a:62:02:df:49:2f:85:f4:72:9c:5e:ab:
                    c1:8a:da:d7:40:f8:cb:e2:d7:67:b4:c3:f1:a7:90:
                    4e:39:e5:cd:cb:36:c4:c2:c0:e0:d8:d1:55:ce:d6:
                    07:f8:ff:0e:a6:43:af:80:b4:26:c6:f2:13:f6:a7:
                    31:6e:92:92:df:5c:3f:cb:18:0d:2c:db:5a:75:e0:
                    7d:bf
                Exponent: 65537 (0x10001)
        X509v3 extensions:
            X509v3 Subject Key Identifier: 
                B5:20:D7:03:B1:69:D2:2C:ED:E7:7F:71:8A:40:9C:9D:A2:20:00:E9
            X509v3 Authority Key Identifier: 
                keyid:64:04:6B:53:6C:01:60:57:A0:47:FA:CB:98:02:2D:6F:01:9A:10:C3

            X509v3 Basic Constraints: 
                CA:FALSE
            X509v3 Key Usage: 
                Digital Signature, Key Encipherment
            X509v3 Subject Alternative Name: 
                DNS:example.com, DNS:www.example.com, DNS:mail.example.com, DNS:ftp.example.com
            Netscape Comment: 
                OpenSSL Generated Certificate
    Signature Algorithm: sha256WithRSAEncryption
         93:a1:f2:20:47:0a:36:cd:06:15:75:69:b1:f8:4e:32:b5:c5:
         6f:3e:fb:bf:94:c1:18:ca:7c:3d:8b:9e:d1:9a:31:43:d9:ea:
         a0:7c:cd:3d:3f:45:0e:a1:9d:27:18:45:a2:28:df:1c:7d:27:
         39:44:18:f0:e5:a7:cc:87:17:c1:4d:fd:a6:0b:15:17:0f:d4:
         15:a4:81:e4:b6:d4:b9:01:39:06:da:11:30:9d:bb:6f:da:e8:
         39:93:10:2f:68:0d:72:af:a9:d4:3d:3c:a4:a8:b4:60:be:a7:
         b3:d7:9b:a6:82:1c:0a:05:38:a6:03:4a:67:b9:88:ef:61:34:
         3c:b0:84:d6:28:d0:65:a7:3a:8f:04:03:2f:78:87:3f:90:bd:
         a5:c8:27:c0:e3:24:e9:e5:ac:02:62:f7:45:ae:ba:6d:80:3b:
         bb:cd:26:a3:4d:e1:2a:49:f9:66:7e:de:6e:af:fb:f0:4e:d6:
         01:b7:29:3f:5b:19:60:75:95:a8:8d:81:60:4c:cb:cc:bd:8e:
         66:ff:f1:3d:76:a4:45:cf:61:00:69:c1:82:54:c3:95:e0:7f:
         37:1b:d5:e5:54:17:5f:eb:01:52:83:c7:31:de:90:42:08:52:
         36:e1:d3:4d:55:3e:f2:66:f2:76:40:2c:1f:c3:13:46:c1:fc:
         eb:19:c8:a5:43:71:ab:5f:4e:aa:c3:12:5c:62:0b:7e:82:07:
         d8:c7:b1:05:c8:ed:13:db:c9:20:43:a9:36:6f:82:8b:d9:cc:
         0b:fe:01:81:f7:4b:7a:e4:0d:db:ce:58:75:4d:7c:f0:80:f2:
         03:99:6e:9c:0a:de:55:5c:7b:b3:4d:50:e3:fe:af:6e:1d:84:
         68:5d:f4:08:3c:b5:62:7f:db:7a:06:ec:8f:b9:25:d8:0c:17:
         49:3c:62:d1:a5:db:bf:61:25:a9:cc:0f:a2:09:a5:a5:c2:89:
         75:c2:81:24:b9:d6:fb:d6:b9:90:4b:b8:89:32:36:3a:45:51:
         2d:ae:d3:81:42:f1:ca:7d:6a:d3:e2:6c:06:c8:5f:28:94:16:
         a1:1e:ba:96:d6:bf:2e:de:ee:8b:f2:27:30:86:bc:b6:0b:8a:
         1f:21:45:6c:e3:0a:ed:be:e5:8b:d3:2a:ec:54:8e:13:54:84:
         a8:1a:81:13:96:1d:b3:7a:1c:0e:e7:24:d0:4e:0e:4e:24:b0:
         5e:f5:f6:1c:57:2e:6c:08:9d:35:7c:23:22:8f:da:8a:47:26:
         05:0e:95:65:41:11:3c:90:0f:52:90:46:ec:3a:d5:8d:dd:26:
         76:1d:47:91:d2:89:61:33:78:9e:f8:9c:b5:02:cd:f3:c6:ea:
         dd:93:ab:d0:eb:a6:1c:66
-----BEGIN CERTIFICATE-----
MIIFITCCAwmgAwIBAgIBEDANBgkqhkiG9w0BAQsFADCBhzELMAkGA1UEBhMCSU4x
DjAMBgNVBAgMBURlbGhpMQ4wDAYDVQQHDAVEZWxoaTEOMAwGA1UECgwFSUlJVEQx
CzAJBgNVBAsMAk5TMREwDwYDVQQDDAhBbnNodW1hbjEoMCYGCSqGSIb3DQEJARYZ
YW5zaHVtYW4xNDAyMUBpaWl0ZC5hYy5pbjAeFw0xNjExMjAxNzQ1MjlaFw0xOTA4
MTcxNzQ1MjlaMEgxCzAJBgNVBAYTAklOMQ4wDAYDVQQIDAVEZWxoaTEMMAoGA1UE
BwwDTkNSMQ4wDAYDVQQKDAVJSUlURDELMAkGA1UEAwwCTlMwggEiMA0GCSqGSIb3
DQEBAQUAA4IBDwAwggEKAoIBAQDe5MDWhpU5+5TrayU6zuJg1ycBPLkx/CJrwNnT
g/jMnhQPjKSb/xlRGj4eBHGKX5KQTgc+Czaa2P/co1OzNcYeTBg10ANDyD49Ome7
F1YAEtOeNfOE3vNqbMvdbPqH5Zv9vF7oXRggvU4DOGI1NbRPeRG/B7RBE0W8gNEO
t809Gcf6/pqa+DnrEDYOrZfKd76AWqnkP7EWndi0h3Krggc8ovBIR+2i5eaxPxBZ
AkfVLATlV4eF+HpiAt9JL4X0cpxeq8GK2tdA+Mvi12e0w/GnkE455c3LNsTCwODY
0VXO1gf4/w6mQ6+AtCbG8hP2pzFukpLfXD/LGA0s21p14H2/AgMBAAGjgdUwgdIw
HQYDVR0OBBYEFLUg1wOxadIs7ed/cYpAnJ2iIADpMB8GA1UdIwQYMBaAFGQEa1Ns
AWBXoEf6y5gCLW8BmhDDMAkGA1UdEwQCMAAwCwYDVR0PBAQDAgWgMEoGA1UdEQRD
MEGCC2V4YW1wbGUuY29tgg93d3cuZXhhbXBsZS5jb22CEG1haWwuZXhhbXBsZS5j
b22CD2Z0cC5leGFtcGxlLmNvbTAsBglghkgBhvhCAQ0EHxYdT3BlblNTTCBHZW5l
cmF0ZWQgQ2VydGlmaWNhdGUwDQYJKoZIhvcNAQELBQADggIBAJOh8iBHCjbNBhV1
abH4TjK1xW8++7+UwRjKfD2LntGaMUPZ6qB8zT0/RQ6hnScYRaIo3xx9JzlEGPDl
p8yHF8FN/aYLFRcP1BWkgeS21LkBOQbaETCdu2/a6DmTEC9oDXKvqdQ9PKSotGC+
p7PXm6aCHAoFOKYDSme5iO9hNDywhNYo0GWnOo8EAy94hz+QvaXIJ8DjJOnlrAJi
90Wuum2AO7vNJqNN4SpJ+WZ+3m6v+/BO1gG3KT9bGWB1laiNgWBMy8y9jmb/8T12
pEXPYQBpwYJUw5Xgfzcb1eVUF1/rAVKDxzHekEIIUjbh001VPvJm8nZALB/DE0bB
/OsZyKVDcatfTqrDElxiC36CB9jHsQXI7RPbySBDqTZvgovZzAv+AYH3S3rkDdvO
WHVNfPCA8gOZbpwK3lVce7NNUOP+r24dhGhd9Ag8tWJ/23oG7I+5JdgMF0k8YtGl
279hJanMD6IJpaXCiXXCgSS51vvWuZBLuIkyNjpFUS2u04FC8cp9atPibAbIXyiU
FqEeupbWvy7e7ovyJzCGvLYLih8hRWzjCu2+5YvTKuxUjhNUhKgagROWHbN6HA7n
JNBODk4ksF719hxXLmwInTV8IyKP2opHJgUOlWVBETyQD1KQRuw61Y3dJnYdR5HS
iWEzeJ74nLUCzfPG6t2Tq9Drphxm
-----END CERTIFICATE-----
