Certificate:
    Data:
        Version: 3 (0x2)
        Serial Number: 17 (0x11)
    Signature Algorithm: sha256WithRSAEncryption
        Issuer: C=IN, ST=Delhi, L=Delhi, O=IIITD, OU=NS, CN=Anshuman/emailAddress=anshuman14021@iiitd.ac.in
        Validity
            Not Before: Nov 20 17:49:05 2016 GMT
            Not After : Aug 17 17:49:05 2019 GMT
        Subject: C=IN, ST=Delhi, L=NCR, O=IIITD, CN=NS
        Subject Public Key Info:
            Public Key Algorithm: rsaEncryption
                Public-Key: (2048 bit)
                Modulus:
                    00:dd:e4:93:0a:f1:22:e7:4f:6d:3e:57:83:22:47:
                    95:d6:ec:e7:42:11:2b:69:5a:80:a4:52:17:ed:c7:
                    0f:7d:f2:98:e1:2f:d1:ce:d5:21:7c:03:27:2b:d4:
                    7a:a8:b5:21:fd:ce:bd:fe:95:8a:2f:68:7d:f3:12:
                    82:19:de:b1:dc:9e:69:17:5f:ab:26:55:e1:4b:d9:
                    ef:f0:5e:b8:09:9d:85:d5:35:bb:00:ae:ae:56:58:
                    3e:8b:4f:25:c0:37:2f:b6:2e:a4:ff:57:e0:32:00:
                    51:d2:be:cd:1a:d4:fa:8f:f0:fa:ef:ec:0d:e9:73:
                    f3:f6:33:08:4f:56:44:eb:78:5b:b1:b8:10:2b:d8:
                    8a:2a:24:cf:4e:40:2d:07:77:6c:76:c6:27:02:e9:
                    cc:77:ea:56:08:fb:e2:07:04:88:b5:1d:f9:48:e9:
                    20:07:6e:3c:f3:f3:80:95:64:d0:7c:0a:8c:1f:b0:
                    d4:ab:57:19:f9:8a:a7:07:47:56:23:75:60:dc:29:
                    a6:9b:80:72:25:97:33:9d:a3:47:14:af:e7:9b:69:
                    d2:2a:85:da:e2:8f:92:4f:2a:eb:a5:7b:65:00:0c:
                    3f:f2:2f:0b:aa:59:64:71:a4:00:fa:8f:0d:37:49:
                    e1:c8:f9:12:fd:98:2a:6b:c3:fd:66:fe:ad:35:48:
                    0c:75
                Exponent: 65537 (0x10001)
        X509v3 extensions:
            X509v3 Subject Key Identifier: 
                69:36:B8:80:67:D5:8A:04:F7:94:32:E8:FC:56:DB:47:BA:45:76:8F
            X509v3 Authority Key Identifier: 
                keyid:64:04:6B:53:6C:01:60:57:A0:47:FA:CB:98:02:2D:6F:01:9A:10:C3

            X509v3 Basic Constraints: 
                CA:FALSE
            X509v3 Key Usage: 
                Digital Signature, Key Encipherment
            X509v3 Subject Alternative Name: 
                DNS:example.com, DNS:www.example.com, DNS:mail.example.com, DNS:ftp.example.com
            Netscape Comment: 
                OpenSSL Generated Certificate
    Signature Algorithm: sha256WithRSAEncryption
         39:87:36:f3:a1:de:bd:00:5c:09:f8:8b:73:19:5e:a2:a0:31:
         61:32:ee:b6:3e:e5:64:31:2c:27:3d:0a:c6:92:42:88:a9:10:
         55:b5:e1:50:46:75:ed:9d:bf:ff:5b:a9:6b:cb:21:70:82:9f:
         22:3a:ad:ba:a5:09:6c:e9:fa:df:f0:e4:83:2c:fe:4c:16:93:
         56:b5:53:95:17:5b:b0:a9:ca:06:01:9a:a2:00:40:35:d2:95:
         a6:ef:ed:2c:c7:b1:84:d4:7c:79:37:01:1d:fe:5b:e3:68:2e:
         71:ec:85:04:d1:1d:a6:2d:20:88:24:21:39:d3:f3:ed:c7:35:
         40:72:28:bb:5f:18:4c:06:7a:b6:f2:c6:98:df:a9:cd:ee:cb:
         85:74:0c:ad:30:92:a1:35:fb:44:46:7b:b0:84:c4:37:5a:a9:
         0d:e3:eb:e4:05:b5:b9:6d:d4:10:90:8a:16:5b:e5:31:19:98:
         e6:97:75:05:e7:8d:d8:86:6b:82:4d:e8:8a:66:8f:65:a5:2f:
         3b:01:20:ad:1f:0c:a2:a1:e8:9e:a1:a2:92:c0:33:e7:89:70:
         59:05:68:68:e0:7a:4a:54:df:bd:d5:5c:28:18:41:a3:23:f9:
         bd:14:b8:bb:29:0e:1d:5d:3f:a2:d7:09:12:dc:1e:1a:d6:f9:
         6a:6b:91:c9:53:aa:ea:83:56:96:f2:ef:98:7a:aa:8f:af:7a:
         c6:c4:11:e6:f3:8a:12:e0:22:84:5e:a9:6b:31:47:40:ac:d4:
         a6:f8:ba:58:7d:ce:8a:e6:67:53:f1:76:1f:19:b6:27:1a:20:
         a6:d1:d4:b6:4b:31:36:6e:5c:75:7c:79:51:2d:45:b0:d7:48:
         d7:0e:7a:dc:6b:85:09:4e:45:f9:89:f0:c6:8c:7b:4d:58:41:
         c8:0e:f2:07:5d:8c:5c:3c:d7:bf:7a:7d:a9:cf:ae:14:3a:09:
         e5:bc:d6:b5:78:45:1f:5e:0e:ec:f0:9b:23:9c:f1:1c:ff:1a:
         a3:86:45:7e:fb:dc:dd:2e:f3:3e:4e:a1:55:a5:38:71:72:ef:
         01:40:22:3a:a6:29:36:e5:dd:ef:0a:37:6c:97:a6:3a:f6:9a:
         f7:8c:04:7d:66:5f:e2:42:9e:41:3d:2a:82:77:b9:06:61:c0:
         f5:a0:48:c4:fc:5c:c3:c5:10:33:39:4c:ca:ed:68:7a:7a:be:
         fe:46:a1:d3:bd:a5:3d:37:51:ac:b1:b5:9c:42:20:a8:a4:c2:
         84:00:ab:fc:43:95:f4:9d:45:f5:4a:02:94:7f:31:ea:b7:bd:
         32:ca:a9:71:37:4c:00:d1:b1:39:94:30:1b:f9:9e:1d:25:7e:
         84:05:e4:23:e4:d6:0b:b2
-----BEGIN CERTIFICATE-----
MIIFITCCAwmgAwIBAgIBETANBgkqhkiG9w0BAQsFADCBhzELMAkGA1UEBhMCSU4x
DjAMBgNVBAgMBURlbGhpMQ4wDAYDVQQHDAVEZWxoaTEOMAwGA1UECgwFSUlJVEQx
CzAJBgNVBAsMAk5TMREwDwYDVQQDDAhBbnNodW1hbjEoMCYGCSqGSIb3DQEJARYZ
YW5zaHVtYW4xNDAyMUBpaWl0ZC5hYy5pbjAeFw0xNjExMjAxNzQ5MDVaFw0xOTA4
MTcxNzQ5MDVaMEgxCzAJBgNVBAYTAklOMQ4wDAYDVQQIDAVEZWxoaTEMMAoGA1UE
BwwDTkNSMQ4wDAYDVQQKDAVJSUlURDELMAkGA1UEAwwCTlMwggEiMA0GCSqGSIb3
DQEBAQUAA4IBDwAwggEKAoIBAQDd5JMK8SLnT20+V4MiR5XW7OdCEStpWoCkUhft
xw998pjhL9HO1SF8Aycr1HqotSH9zr3+lYovaH3zEoIZ3rHcnmkXX6smVeFL2e/w
XrgJnYXVNbsArq5WWD6LTyXANy+2LqT/V+AyAFHSvs0a1PqP8Prv7A3pc/P2MwhP
VkTreFuxuBAr2IoqJM9OQC0Hd2x2xicC6cx36lYI++IHBIi1HflI6SAHbjzz84CV
ZNB8CowfsNSrVxn5iqcHR1YjdWDcKaabgHIllzOdo0cUr+ebadIqhdrij5JPKuul
e2UADD/yLwuqWWRxpAD6jw03SeHI+RL9mCprw/1m/q01SAx1AgMBAAGjgdUwgdIw
HQYDVR0OBBYEFGk2uIBn1YoE95Qy6PxW20e6RXaPMB8GA1UdIwQYMBaAFGQEa1Ns
AWBXoEf6y5gCLW8BmhDDMAkGA1UdEwQCMAAwCwYDVR0PBAQDAgWgMEoGA1UdEQRD
MEGCC2V4YW1wbGUuY29tgg93d3cuZXhhbXBsZS5jb22CEG1haWwuZXhhbXBsZS5j
b22CD2Z0cC5leGFtcGxlLmNvbTAsBglghkgBhvhCAQ0EHxYdT3BlblNTTCBHZW5l
cmF0ZWQgQ2VydGlmaWNhdGUwDQYJKoZIhvcNAQELBQADggIBADmHNvOh3r0AXAn4
i3MZXqKgMWEy7rY+5WQxLCc9CsaSQoipEFW14VBGde2dv/9bqWvLIXCCnyI6rbql
CWzp+t/w5IMs/kwWk1a1U5UXW7CpygYBmqIAQDXSlabv7SzHsYTUfHk3AR3+W+No
LnHshQTRHaYtIIgkITnT8+3HNUByKLtfGEwGerbyxpjfqc3uy4V0DK0wkqE1+0RG
e7CExDdaqQ3j6+QFtblt1BCQihZb5TEZmOaXdQXnjdiGa4JN6Ipmj2WlLzsBIK0f
DKKh6J6hopLAM+eJcFkFaGjgekpU373VXCgYQaMj+b0UuLspDh1dP6LXCRLcHhrW
+WprkclTquqDVpby75h6qo+vesbEEebzihLgIoReqWsxR0Cs1Kb4ulh9zormZ1Px
dh8ZticaIKbR1LZLMTZuXHV8eVEtRbDXSNcOetxrhQlORfmJ8MaMe01YQcgO8gdd
jFw81796fanPrhQ6CeW81rV4RR9eDuzwmyOc8Rz/GqOGRX773N0u8z5OoVWlOHFy
7wFAIjqmKTbl3e8KN2yXpjr2mveMBH1mX+JCnkE9KoJ3uQZhwPWgSMT8XMPFEDM5
TMrtaHp6vv5GodO9pT03UayxtZxCIKikwoQAq/xDlfSdRfVKApR/Meq3vTLKqXE3
TADRsTmUMBv5nh0lfoQF5CPk1guy
-----END CERTIFICATE-----
