Certificate:
    Data:
        Version: 3 (0x2)
        Serial Number: 18 (0x12)
    Signature Algorithm: sha256WithRSAEncryption
        Issuer: C=IN, ST=Delhi, L=Delhi, O=IIITD, OU=NS, CN=Anshuman/emailAddress=anshuman14021@iiitd.ac.in
        Validity
            Not Before: Nov 20 17:49:10 2016 GMT
            Not After : Aug 17 17:49:10 2019 GMT
        Subject: C=IN, ST=Delhi, L=NCR, O=IIITD, CN=NS
        Subject Public Key Info:
            Public Key Algorithm: rsaEncryption
                Public-Key: (2048 bit)
                Modulus:
                    00:b4:a7:8c:c3:31:59:82:0a:4a:ed:6e:83:bd:1a:
                    d7:8a:80:4d:db:10:23:10:73:e9:d4:3c:93:4a:86:
                    37:b5:6a:e1:8d:8e:ac:cd:98:ec:7b:e0:05:05:25:
                    aa:b9:79:d3:9a:64:fa:e2:71:71:96:61:85:92:61:
                    d4:6f:fd:f7:69:6c:44:18:c5:cd:7c:1a:b3:23:62:
                    8d:94:82:45:97:be:8a:4a:b5:a4:fe:08:2e:03:bc:
                    67:4f:83:a5:57:e1:88:1d:ac:c3:19:34:76:84:c3:
                    fd:3b:a7:f1:5c:4a:1b:92:f0:3e:94:07:14:39:95:
                    72:2b:09:3b:35:1d:fb:0b:e1:fc:8b:3e:1e:30:cc:
                    9f:c4:02:78:27:0a:4f:e6:45:e1:4e:9a:a1:ce:e5:
                    a9:0d:d5:65:2d:c1:7b:0b:81:90:07:b2:a2:8e:c0:
                    4b:ef:cf:9e:b0:d2:28:7c:dd:85:0b:d0:75:cc:62:
                    1a:c0:a9:4b:44:53:8e:09:2a:84:d9:e6:68:0b:6a:
                    a1:5a:47:a1:2c:18:b8:65:0f:48:fc:bf:6c:82:a1:
                    a1:f3:e3:76:11:a2:66:50:c2:3f:95:4a:aa:18:4f:
                    07:38:1c:47:e6:71:f8:4c:0a:c5:1f:fe:19:4e:79:
                    95:9d:a2:c6:8b:48:1a:15:ba:b9:da:39:29:90:a9:
                    08:61
                Exponent: 65537 (0x10001)
        X509v3 extensions:
            X509v3 Subject Key Identifier: 
                1C:F0:2D:72:7B:19:ED:B2:4B:29:67:14:3E:F0:75:7C:B0:DD:DE:6E
            X509v3 Authority Key Identifier: 
                keyid:64:04:6B:53:6C:01:60:57:A0:47:FA:CB:98:02:2D:6F:01:9A:10:C3

            X509v3 Basic Constraints: 
                CA:FALSE
            X509v3 Key Usage: 
                Digital Signature, Key Encipherment
            X509v3 Subject Alternative Name: 
                DNS:example.com, DNS:www.example.com, DNS:mail.example.com, DNS:ftp.example.com
            Netscape Comment: 
                OpenSSL Generated Certificate
    Signature Algorithm: sha256WithRSAEncryption
         a3:cc:b8:a9:bf:94:11:b7:b2:fc:93:70:ad:9c:84:74:b1:23:
         cc:4f:08:8d:1a:6a:c0:c8:59:6e:10:f8:0d:b4:c9:87:8b:9f:
         5b:2c:a5:b1:c1:ac:09:07:eb:34:72:d3:0e:37:56:9a:34:be:
         f0:60:d0:05:e3:e7:89:50:58:c2:57:b9:8f:51:6c:25:c2:b4:
         cf:40:90:b1:18:72:df:b7:ed:ad:66:75:7b:da:06:17:ed:0b:
         0e:5e:26:7b:6a:fa:dc:31:e2:e7:71:d3:f2:be:25:16:95:73:
         d3:7a:1d:5a:37:70:2d:6e:e4:f4:b3:4a:d4:41:30:a6:24:1b:
         26:69:f6:66:74:6b:b1:3d:f3:08:8e:ff:a1:d0:83:87:49:ae:
         ae:df:83:0a:89:41:2d:23:40:a7:33:bb:03:57:51:90:59:6f:
         a0:8a:0d:e5:5f:c4:dc:fd:9f:0b:e7:a5:72:88:81:53:25:c4:
         5d:26:3f:11:86:59:52:2c:30:57:73:43:52:6f:95:9a:15:b1:
         4d:0a:78:ce:35:6a:e8:36:c1:97:36:c5:4a:31:8e:9f:f2:78:
         e6:e8:6b:73:29:0c:c1:dc:e3:6d:b9:1e:6e:7b:fe:d8:a0:8e:
         17:22:81:a7:19:66:0c:0b:4c:98:75:95:db:53:64:7e:96:b5:
         7b:65:47:2f:b9:8e:92:be:8d:7a:96:e6:f2:9e:a1:b2:08:4b:
         f2:45:5f:0b:1e:e1:f9:af:14:90:5d:11:6c:e6:f2:ab:98:9b:
         0e:1f:08:45:71:b1:2a:c8:a3:b2:9e:d4:6c:6f:57:f3:d0:bb:
         38:73:62:37:fa:b5:4f:02:b7:18:6e:e2:8b:53:64:e3:12:bc:
         92:9c:ab:c3:b2:a6:d4:ea:6a:79:4d:69:dc:39:99:02:04:e1:
         3f:61:8d:b6:0e:59:33:40:20:d6:9b:dd:60:f9:01:5d:87:12:
         2c:12:1d:2b:cc:b6:6e:de:a0:b1:13:9f:1a:70:25:36:4b:20:
         f7:8a:54:44:d4:3e:50:32:bc:cd:12:70:89:23:e3:90:3c:1c:
         11:3b:89:b0:5f:dd:f4:78:83:f0:97:e6:be:08:c7:43:e0:3b:
         a5:ae:c5:52:04:d2:60:97:6c:d4:a9:b8:3d:ff:cd:db:e0:b2:
         4e:3e:26:aa:24:7d:73:90:1a:c1:11:07:c5:06:f2:73:1f:19:
         31:d7:3d:f2:49:09:58:4e:8d:17:0e:73:97:ec:25:a1:8f:8a:
         b0:a8:1d:8f:b0:2e:ce:0b:55:63:f5:0a:f3:0a:4d:1b:e5:41:
         30:58:58:af:f8:6b:9c:5e:5d:3c:e7:e8:c8:a7:02:18:a8:82:
         dd:48:fa:23:20:d4:f3:2d
-----BEGIN CERTIFICATE-----
MIIFITCCAwmgAwIBAgIBEjANBgkqhkiG9w0BAQsFADCBhzELMAkGA1UEBhMCSU4x
DjAMBgNVBAgMBURlbGhpMQ4wDAYDVQQHDAVEZWxoaTEOMAwGA1UECgwFSUlJVEQx
CzAJBgNVBAsMAk5TMREwDwYDVQQDDAhBbnNodW1hbjEoMCYGCSqGSIb3DQEJARYZ
YW5zaHVtYW4xNDAyMUBpaWl0ZC5hYy5pbjAeFw0xNjExMjAxNzQ5MTBaFw0xOTA4
MTcxNzQ5MTBaMEgxCzAJBgNVBAYTAklOMQ4wDAYDVQQIDAVEZWxoaTEMMAoGA1UE
BwwDTkNSMQ4wDAYDVQQKDAVJSUlURDELMAkGA1UEAwwCTlMwggEiMA0GCSqGSIb3
DQEBAQUAA4IBDwAwggEKAoIBAQC0p4zDMVmCCkrtboO9GteKgE3bECMQc+nUPJNK
hje1auGNjqzNmOx74AUFJaq5edOaZPricXGWYYWSYdRv/fdpbEQYxc18GrMjYo2U
gkWXvopKtaT+CC4DvGdPg6VX4YgdrMMZNHaEw/07p/FcShuS8D6UBxQ5lXIrCTs1
HfsL4fyLPh4wzJ/EAngnCk/mReFOmqHO5akN1WUtwXsLgZAHsqKOwEvvz56w0ih8
3YUL0HXMYhrAqUtEU44JKoTZ5mgLaqFaR6EsGLhlD0j8v2yCoaHz43YRomZQwj+V
SqoYTwc4HEfmcfhMCsUf/hlOeZWdosaLSBoVurnaOSmQqQhhAgMBAAGjgdUwgdIw
HQYDVR0OBBYEFBzwLXJ7Ge2ySylnFD7wdXyw3d5uMB8GA1UdIwQYMBaAFGQEa1Ns
AWBXoEf6y5gCLW8BmhDDMAkGA1UdEwQCMAAwCwYDVR0PBAQDAgWgMEoGA1UdEQRD
MEGCC2V4YW1wbGUuY29tgg93d3cuZXhhbXBsZS5jb22CEG1haWwuZXhhbXBsZS5j
b22CD2Z0cC5leGFtcGxlLmNvbTAsBglghkgBhvhCAQ0EHxYdT3BlblNTTCBHZW5l
cmF0ZWQgQ2VydGlmaWNhdGUwDQYJKoZIhvcNAQELBQADggIBAKPMuKm/lBG3svyT
cK2chHSxI8xPCI0aasDIWW4Q+A20yYeLn1sspbHBrAkH6zRy0w43Vpo0vvBg0AXj
54lQWMJXuY9RbCXCtM9AkLEYct+37a1mdXvaBhftCw5eJntq+twx4udx0/K+JRaV
c9N6HVo3cC1u5PSzStRBMKYkGyZp9mZ0a7E98wiO/6HQg4dJrq7fgwqJQS0jQKcz
uwNXUZBZb6CKDeVfxNz9nwvnpXKIgVMlxF0mPxGGWVIsMFdzQ1JvlZoVsU0KeM41
aug2wZc2xUoxjp/yeOboa3MpDMHc4225Hm57/tigjhcigacZZgwLTJh1ldtTZH6W
tXtlRy+5jpK+jXqW5vKeobIIS/JFXwse4fmvFJBdEWzm8quYmw4fCEVxsSrIo7Ke
1GxvV/PQuzhzYjf6tU8Ctxhu4otTZOMSvJKcq8OyptTqanlNadw5mQIE4T9hjbYO
WTNAINab3WD5AV2HEiwSHSvMtm7eoLETnxpwJTZLIPeKVETUPlAyvM0ScIkj45A8
HBE7ibBf3fR4g/CX5r4Ix0PgO6WuxVIE0mCXbNSpuD3/zdvgsk4+JqokfXOQGsER
B8UG8nMfGTHXPfJJCVhOjRcOc5fsJaGPirCoHY+wLs4LVWP1CvMKTRvlQTBYWK/4
a5xeXTzn6MinAhiogt1I+iMg1PMt
-----END CERTIFICATE-----
