Certificate:
    Data:
        Version: 3 (0x2)
        Serial Number: 19 (0x13)
    Signature Algorithm: sha256WithRSAEncryption
        Issuer: C=IN, ST=Delhi, L=Delhi, O=IIITD, OU=NS, CN=Anshuman/emailAddress=anshuman14021@iiitd.ac.in
        Validity
            Not Before: Nov 20 18:01:43 2016 GMT
            Not After : Aug 17 18:01:43 2019 GMT
        Subject: C=IN, ST=Delhi, L=NCR, O=IIITD, CN=NS
        Subject Public Key Info:
            Public Key Algorithm: rsaEncryption
                Public-Key: (2048 bit)
                Modulus:
                    00:af:0c:7e:3e:59:85:b3:95:a0:69:c5:57:75:f4:
                    a4:d3:09:54:3f:95:54:56:c6:af:2b:ea:aa:80:47:
                    f8:20:1b:bb:a2:2d:27:d1:72:64:d6:e2:ae:fb:ce:
                    27:9a:20:26:b3:f2:ac:67:28:19:ec:94:1b:c3:f4:
                    4b:85:f9:d1:29:dc:75:39:76:ee:b6:02:e8:ec:dd:
                    51:f4:49:f8:07:1f:cc:71:d7:2d:1d:35:e0:3c:03:
                    f6:ea:60:c1:9e:0a:16:4f:f0:99:ff:7e:45:d6:c6:
                    e1:ab:99:5a:aa:2d:9f:f1:7c:6c:aa:45:64:ae:bc:
                    9f:c8:4e:8c:44:30:c5:6e:62:42:f0:4b:8a:aa:ab:
                    5f:5d:38:7c:2e:05:de:a3:e4:15:e3:46:e4:e2:f9:
                    0d:8f:ae:37:0a:5e:73:39:7b:db:f9:52:fa:13:34:
                    4e:f4:69:ef:9f:af:ac:7f:02:2f:e7:25:5c:49:e2:
                    7b:ab:00:76:db:1a:fc:ce:c8:60:d6:8a:25:6a:07:
                    46:a1:d4:8a:e5:75:34:22:6d:a2:e6:01:1e:f5:03:
                    a7:09:80:3f:5b:5f:ca:d2:e5:a1:08:7c:e4:97:8c:
                    e4:7e:36:0b:96:97:74:09:38:ee:89:13:ae:05:3d:
                    58:64:82:83:a5:fd:20:ac:0f:91:55:af:8e:ff:2d:
                    62:47
                Exponent: 65537 (0x10001)
        X509v3 extensions:
            X509v3 Subject Key Identifier: 
                28:90:B4:82:42:15:A8:09:1D:0C:3E:42:5F:29:69:40:55:8D:BF:A3
            X509v3 Authority Key Identifier: 
                keyid:64:04:6B:53:6C:01:60:57:A0:47:FA:CB:98:02:2D:6F:01:9A:10:C3

            X509v3 Basic Constraints: 
                CA:FALSE
            X509v3 Key Usage: 
                Digital Signature, Key Encipherment
            X509v3 Subject Alternative Name: 
                DNS:example.com, DNS:www.example.com, DNS:mail.example.com, DNS:ftp.example.com
            Netscape Comment: 
                OpenSSL Generated Certificate
    Signature Algorithm: sha256WithRSAEncryption
         23:85:14:23:48:df:c8:eb:05:22:06:48:3e:18:0f:b5:67:ca:
         31:37:52:6a:de:5c:3d:12:72:a4:3c:56:b0:4a:42:bc:79:0e:
         26:c3:35:80:e1:2e:82:7e:ce:a5:b5:9f:ab:46:6e:5d:a4:ea:
         6b:98:51:9b:bc:aa:4c:39:37:5d:63:fa:0e:d5:40:6c:c0:56:
         58:39:cf:e5:bc:50:99:61:49:07:04:c5:73:0f:8a:f5:31:9a:
         0f:72:f6:4b:40:e9:bc:55:9a:32:30:14:e6:80:67:e3:4e:e2:
         b3:83:75:05:72:ff:c9:da:45:9d:e9:6b:83:c1:70:00:72:4b:
         2d:4a:df:ed:3c:59:29:c7:25:e4:34:c0:6a:78:04:d2:80:58:
         ca:9e:bf:66:ea:f8:50:f6:40:97:2d:71:f0:80:b4:7f:3d:77:
         3a:65:55:d0:fc:f2:2b:39:4c:f4:b9:de:82:73:40:fc:b5:ea:
         56:bd:48:b3:4a:db:0c:49:9e:7c:65:29:a9:f0:a7:95:ff:58:
         97:e7:84:8d:79:39:4f:5b:16:91:d4:3f:27:1b:c6:01:0b:45:
         d3:e0:f8:19:02:50:5c:19:c2:d4:fd:69:d9:b2:ad:c4:60:25:
         fc:eb:c7:74:a7:42:99:36:0d:fe:2c:0f:45:6e:d1:57:58:60:
         23:43:e7:b8:b7:3d:57:fe:55:c0:84:55:50:d5:11:59:73:59:
         db:a9:a0:dd:7f:85:4c:5c:1a:a0:b0:a6:f0:eb:f8:f5:c4:b1:
         d6:e2:ff:24:91:83:9b:71:2b:77:38:db:32:37:09:82:ff:c8:
         8b:b8:bf:61:da:26:c0:aa:5c:62:a7:dc:60:b8:42:73:99:55:
         7d:85:53:8d:0a:81:88:60:5f:13:74:49:d0:12:7c:76:9b:bc:
         67:8d:9b:e1:8f:1f:22:55:88:54:b3:46:6e:c5:d4:c1:ea:2d:
         19:af:8a:5d:69:ba:85:1b:3e:62:19:61:29:bf:9d:55:6d:fb:
         4e:61:fe:61:43:c9:cc:7d:f8:e3:36:fc:27:8c:77:61:ea:32:
         e8:c8:14:82:bc:c9:0c:e0:d9:64:59:47:3d:9d:d1:ac:9e:82:
         63:1d:90:29:54:22:e5:40:47:2b:c6:d3:34:b8:c9:3c:ec:75:
         a6:2c:3f:aa:05:f1:cb:c2:b2:26:81:45:16:0d:56:32:cb:94:
         af:88:0f:46:54:ee:95:77:1f:f4:51:ab:ef:e2:c0:c4:10:c8:
         de:ba:6f:61:07:01:45:6c:05:68:4d:be:51:44:e1:3a:9b:62:
         c2:3e:65:a4:4d:6c:05:7a:cd:0f:06:27:3e:aa:7c:4e:b2:cf:
         04:a8:9b:af:ca:8b:c6:2c
-----BEGIN CERTIFICATE-----
MIIFITCCAwmgAwIBAgIBEzANBgkqhkiG9w0BAQsFADCBhzELMAkGA1UEBhMCSU4x
DjAMBgNVBAgMBURlbGhpMQ4wDAYDVQQHDAVEZWxoaTEOMAwGA1UECgwFSUlJVEQx
CzAJBgNVBAsMAk5TMREwDwYDVQQDDAhBbnNodW1hbjEoMCYGCSqGSIb3DQEJARYZ
YW5zaHVtYW4xNDAyMUBpaWl0ZC5hYy5pbjAeFw0xNjExMjAxODAxNDNaFw0xOTA4
MTcxODAxNDNaMEgxCzAJBgNVBAYTAklOMQ4wDAYDVQQIDAVEZWxoaTEMMAoGA1UE
BwwDTkNSMQ4wDAYDVQQKDAVJSUlURDELMAkGA1UEAwwCTlMwggEiMA0GCSqGSIb3
DQEBAQUAA4IBDwAwggEKAoIBAQCvDH4+WYWzlaBpxVd19KTTCVQ/lVRWxq8r6qqA
R/ggG7uiLSfRcmTW4q77zieaICaz8qxnKBnslBvD9EuF+dEp3HU5du62Aujs3VH0
SfgHH8xx1y0dNeA8A/bqYMGeChZP8Jn/fkXWxuGrmVqqLZ/xfGyqRWSuvJ/IToxE
MMVuYkLwS4qqq19dOHwuBd6j5BXjRuTi+Q2PrjcKXnM5e9v5UvoTNE70ae+fr6x/
Ai/nJVxJ4nurAHbbGvzOyGDWiiVqB0ah1IrldTQibaLmAR71A6cJgD9bX8rS5aEI
fOSXjOR+NguWl3QJOO6JE64FPVhkgoOl/SCsD5FVr47/LWJHAgMBAAGjgdUwgdIw
HQYDVR0OBBYEFCiQtIJCFagJHQw+Ql8paUBVjb+jMB8GA1UdIwQYMBaAFGQEa1Ns
AWBXoEf6y5gCLW8BmhDDMAkGA1UdEwQCMAAwCwYDVR0PBAQDAgWgMEoGA1UdEQRD
MEGCC2V4YW1wbGUuY29tgg93d3cuZXhhbXBsZS5jb22CEG1haWwuZXhhbXBsZS5j
b22CD2Z0cC5leGFtcGxlLmNvbTAsBglghkgBhvhCAQ0EHxYdT3BlblNTTCBHZW5l
cmF0ZWQgQ2VydGlmaWNhdGUwDQYJKoZIhvcNAQELBQADggIBACOFFCNI38jrBSIG
SD4YD7VnyjE3UmreXD0ScqQ8VrBKQrx5DibDNYDhLoJ+zqW1n6tGbl2k6muYUZu8
qkw5N11j+g7VQGzAVlg5z+W8UJlhSQcExXMPivUxmg9y9ktA6bxVmjIwFOaAZ+NO
4rODdQVy/8naRZ3pa4PBcABySy1K3+08WSnHJeQ0wGp4BNKAWMqev2bq+FD2QJct
cfCAtH89dzplVdD88is5TPS53oJzQPy16la9SLNK2wxJnnxlKanwp5X/WJfnhI15
OU9bFpHUPycbxgELRdPg+BkCUFwZwtT9admyrcRgJfzrx3SnQpk2Df4sD0Vu0VdY
YCND57i3PVf+VcCEVVDVEVlzWdupoN1/hUxcGqCwpvDr+PXEsdbi/ySRg5txK3c4
2zI3CYL/yIu4v2HaJsCqXGKn3GC4QnOZVX2FU40KgYhgXxN0SdASfHabvGeNm+GP
HyJViFSzRm7F1MHqLRmvil1puoUbPmIZYSm/nVVt+05h/mFDycx9+OM2/CeMd2Hq
MujIFIK8yQzg2WRZRz2d0ayegmMdkClUIuVARyvG0zS4yTzsdaYsP6oF8cvCsiaB
RRYNVjLLlK+ID0ZU7pV3H/RRq+/iwMQQyN66b2EHAUVsBWhNvlFE4TqbYsI+ZaRN
bAV6zQ8GJz6qfE6yzwSom6/Ki8Ys
-----END CERTIFICATE-----
