Certificate:
    Data:
        Version: 3 (0x2)
        Serial Number: 20 (0x14)
    Signature Algorithm: sha256WithRSAEncryption
        Issuer: C=IN, ST=Delhi, L=Delhi, O=IIITD, OU=NS, CN=Anshuman/emailAddress=anshuman14021@iiitd.ac.in
        Validity
            Not Before: Nov 20 18:01:50 2016 GMT
            Not After : Aug 17 18:01:50 2019 GMT
        Subject: C=IN, ST=Delhi, L=NCR, O=IIITD, CN=NS
        Subject Public Key Info:
            Public Key Algorithm: rsaEncryption
                Public-Key: (2048 bit)
                Modulus:
                    00:c9:0a:f7:8e:3f:a2:8c:9d:50:3d:fe:10:03:8a:
                    ba:28:34:33:45:f8:9f:6c:74:6e:77:75:2a:61:af:
                    35:70:59:11:18:45:c6:79:24:bc:1b:41:3b:1c:fb:
                    ed:04:72:74:1d:ed:a7:7e:f3:61:73:e5:c1:2d:f0:
                    db:2e:51:2a:d9:9b:d4:d4:e8:13:99:af:58:14:53:
                    43:65:81:2b:75:e6:3a:8f:07:37:d6:d2:af:51:2c:
                    0c:60:23:ae:f2:47:3f:18:8c:3e:e2:f5:cd:b7:b5:
                    73:a6:a9:e8:ac:2c:ae:73:59:ee:92:ff:94:ce:dc:
                    10:65:2f:b1:e1:b0:82:86:38:ae:e9:87:ef:a7:cb:
                    e3:f0:92:73:f0:2a:5e:26:df:bd:43:3e:17:2e:19:
                    17:3e:ae:2d:9f:de:56:da:34:31:d3:09:7d:1c:93:
                    32:eb:e8:e2:24:29:34:d5:62:3b:93:61:cd:0a:b3:
                    a3:96:d0:67:8a:b7:37:e6:dd:69:c6:4b:e7:28:5a:
                    a3:02:57:b1:e9:d9:a4:7e:af:25:be:17:df:f9:0e:
                    b9:8d:94:9b:05:34:35:f4:39:4a:db:e5:3a:7a:65:
                    e3:10:c8:fb:bf:f9:90:35:a9:b8:77:8c:2a:c8:4d:
                    67:51:b5:51:92:21:6d:51:a1:17:ee:c1:fc:95:3d:
                    80:d7
                Exponent: 65537 (0x10001)
        X509v3 extensions:
            X509v3 Subject Key Identifier: 
                1F:40:8B:E7:64:31:49:5F:91:40:D9:CC:4B:6B:C9:60:74:41:20:2D
            X509v3 Authority Key Identifier: 
                keyid:64:04:6B:53:6C:01:60:57:A0:47:FA:CB:98:02:2D:6F:01:9A:10:C3

            X509v3 Basic Constraints: 
                CA:FALSE
            X509v3 Key Usage: 
                Digital Signature, Key Encipherment
            X509v3 Subject Alternative Name: 
                DNS:example.com, DNS:www.example.com, DNS:mail.example.com, DNS:ftp.example.com
            Netscape Comment: 
                OpenSSL Generated Certificate
    Signature Algorithm: sha256WithRSAEncryption
         87:1d:82:a9:3d:91:08:6a:e0:d8:a7:24:7e:4e:34:b1:d5:2f:
         e6:b2:f3:c0:7d:b2:2a:72:bb:83:34:28:6b:82:10:b0:35:8d:
         bc:7f:7a:cd:4c:d9:55:92:88:b5:1b:7b:0d:66:b9:56:6f:11:
         68:47:81:57:77:95:c8:6f:f4:bf:fd:87:4f:71:38:ce:a9:12:
         1c:5b:29:44:cb:d7:b5:bc:31:2d:12:cd:3b:c3:4b:9c:ea:c4:
         92:21:72:12:ef:55:61:b3:e9:be:30:db:22:e6:f8:8e:84:05:
         cb:be:f1:26:ad:bf:f9:04:fa:4d:7f:55:c3:c2:34:c2:21:44:
         40:fd:e2:28:c9:c8:35:26:60:c5:72:7c:b4:ab:45:4c:a2:fa:
         65:53:a1:94:a2:f1:2f:64:e2:bc:39:c3:0e:6f:83:87:0d:3e:
         b3:30:fa:68:cc:f7:90:87:d3:b5:59:89:b0:9b:12:9a:e1:57:
         f8:d9:e0:36:5d:86:d3:e9:30:48:ec:17:94:97:4d:9a:f3:d5:
         5a:49:bb:08:04:20:46:f1:91:10:3e:c5:25:2f:77:9f:81:ff:
         be:6d:9b:e2:f0:c5:d0:87:f8:a0:0c:ea:81:3a:ba:35:68:fb:
         84:f8:fa:fd:74:55:f4:3c:1d:db:c2:0c:6e:b7:59:c7:5a:3b:
         f1:d9:ea:7f:0b:13:f3:a8:0b:87:1c:4c:0c:71:d1:5a:d0:b3:
         cc:dc:6b:87:c5:b5:42:af:15:24:1f:39:c5:14:4c:a0:47:89:
         a5:67:f5:ab:7f:aa:d7:06:e6:27:68:02:91:5d:87:51:95:89:
         63:33:ca:ea:fe:19:99:f1:2c:ec:18:c2:5d:aa:73:43:0f:75:
         8a:ae:f6:ea:ec:69:6d:32:50:5c:74:73:b3:13:41:56:6b:8c:
         ca:12:30:6d:16:6c:eb:cf:e4:59:75:7e:3d:93:7f:d7:99:49:
         02:12:0b:8e:5b:15:b5:98:01:e5:ee:32:0c:53:19:3f:04:47:
         b9:88:a6:6d:3a:a0:2d:c8:12:c8:76:94:f9:83:6e:4c:8d:a1:
         a9:ff:68:9a:83:3b:56:b4:f0:af:22:b3:6b:e7:68:4c:76:5b:
         13:9e:ea:df:9a:0e:89:fb:09:86:fb:5d:03:c0:3d:ae:33:ec:
         d2:2e:73:99:eb:25:fd:22:da:d6:99:7e:c5:c0:b0:69:4c:10:
         b7:52:ef:7d:e5:61:9b:76:92:f4:f6:a0:51:e5:52:e5:ee:20:
         54:0e:5c:3c:fc:82:8d:a8:9c:40:96:3f:61:21:ff:57:6a:e7:
         b8:f1:07:34:c9:2e:81:18:4f:4b:23:ef:8b:4e:d5:c2:bf:84:
         61:83:ea:a8:b4:70:fb:87
-----BEGIN CERTIFICATE-----
MIIFITCCAwmgAwIBAgIBFDANBgkqhkiG9w0BAQsFADCBhzELMAkGA1UEBhMCSU4x
DjAMBgNVBAgMBURlbGhpMQ4wDAYDVQQHDAVEZWxoaTEOMAwGA1UECgwFSUlJVEQx
CzAJBgNVBAsMAk5TMREwDwYDVQQDDAhBbnNodW1hbjEoMCYGCSqGSIb3DQEJARYZ
YW5zaHVtYW4xNDAyMUBpaWl0ZC5hYy5pbjAeFw0xNjExMjAxODAxNTBaFw0xOTA4
MTcxODAxNTBaMEgxCzAJBgNVBAYTAklOMQ4wDAYDVQQIDAVEZWxoaTEMMAoGA1UE
BwwDTkNSMQ4wDAYDVQQKDAVJSUlURDELMAkGA1UEAwwCTlMwggEiMA0GCSqGSIb3
DQEBAQUAA4IBDwAwggEKAoIBAQDJCveOP6KMnVA9/hADirooNDNF+J9sdG53dSph
rzVwWREYRcZ5JLwbQTsc++0EcnQd7ad+82Fz5cEt8NsuUSrZm9TU6BOZr1gUU0Nl
gSt15jqPBzfW0q9RLAxgI67yRz8YjD7i9c23tXOmqeisLK5zWe6S/5TO3BBlL7Hh
sIKGOK7ph++ny+PwknPwKl4m371DPhcuGRc+ri2f3lbaNDHTCX0ckzLr6OIkKTTV
YjuTYc0Ks6OW0GeKtzfm3WnGS+coWqMCV7Hp2aR+ryW+F9/5DrmNlJsFNDX0OUrb
5Tp6ZeMQyPu/+ZA1qbh3jCrITWdRtVGSIW1RoRfuwfyVPYDXAgMBAAGjgdUwgdIw
HQYDVR0OBBYEFB9Ai+dkMUlfkUDZzEtryWB0QSAtMB8GA1UdIwQYMBaAFGQEa1Ns
AWBXoEf6y5gCLW8BmhDDMAkGA1UdEwQCMAAwCwYDVR0PBAQDAgWgMEoGA1UdEQRD
MEGCC2V4YW1wbGUuY29tgg93d3cuZXhhbXBsZS5jb22CEG1haWwuZXhhbXBsZS5j
b22CD2Z0cC5leGFtcGxlLmNvbTAsBglghkgBhvhCAQ0EHxYdT3BlblNTTCBHZW5l
cmF0ZWQgQ2VydGlmaWNhdGUwDQYJKoZIhvcNAQELBQADggIBAIcdgqk9kQhq4Nin
JH5ONLHVL+ay88B9sipyu4M0KGuCELA1jbx/es1M2VWSiLUbew1muVZvEWhHgVd3
lchv9L/9h09xOM6pEhxbKUTL17W8MS0SzTvDS5zqxJIhchLvVWGz6b4w2yLm+I6E
Bcu+8Satv/kE+k1/VcPCNMIhRED94ijJyDUmYMVyfLSrRUyi+mVToZSi8S9k4rw5
ww5vg4cNPrMw+mjM95CH07VZibCbEprhV/jZ4DZdhtPpMEjsF5SXTZrz1VpJuwgE
IEbxkRA+xSUvd5+B/75tm+LwxdCH+KAM6oE6ujVo+4T4+v10VfQ8HdvCDG63Wcda
O/HZ6n8LE/OoC4ccTAxx0VrQs8zca4fFtUKvFSQfOcUUTKBHiaVn9at/qtcG5ido
ApFdh1GViWMzyur+GZnxLOwYwl2qc0MPdYqu9ursaW0yUFx0c7MTQVZrjMoSMG0W
bOvP5Fl1fj2Tf9eZSQISC45bFbWYAeXuMgxTGT8ER7mIpm06oC3IEsh2lPmDbkyN
oan/aJqDO1a08K8is2vnaEx2WxOe6t+aDon7CYb7XQPAPa4z7NIuc5nrJf0i2taZ
fsXAsGlMELdS733lYZt2kvT2oFHlUuXuIFQOXDz8go2onECWP2Eh/1dq57jxBzTJ
LoEYT0sj74tO1cK/hGGD6qi0cPuH
-----END CERTIFICATE-----
