Certificate:
    Data:
        Version: 3 (0x2)
        Serial Number: 21 (0x15)
    Signature Algorithm: sha256WithRSAEncryption
        Issuer: C=IN, ST=Delhi, L=Delhi, O=IIITD, OU=NS, CN=Anshuman/emailAddress=anshuman14021@iiitd.ac.in
        Validity
            Not Before: Nov 20 18:14:54 2016 GMT
            Not After : Aug 17 18:14:54 2019 GMT
        Subject: C=IN, ST=Delhi, L=NCR, O=IIITD, CN=NS
        Subject Public Key Info:
            Public Key Algorithm: rsaEncryption
                Public-Key: (2048 bit)
                Modulus:
                    00:e2:35:02:82:f5:26:c2:71:51:2d:37:18:2f:f6:
                    1e:d9:a7:4e:9d:63:9e:86:72:65:44:b8:b2:88:d6:
                    ea:a2:65:b2:aa:3c:2b:20:51:30:6c:e0:c6:e2:9b:
                    19:62:51:81:2a:d8:bf:ca:03:3d:12:c2:6a:05:d6:
                    ca:71:1e:27:cb:15:de:9d:1d:f3:56:2a:0c:57:51:
                    fa:3b:0b:bf:fb:1f:16:8f:e9:4f:fd:a4:23:2c:b6:
                    42:83:38:07:d7:d8:2c:6f:82:2a:5e:c2:5d:5d:ff:
                    2d:d1:33:ba:d5:44:52:bd:4f:f3:44:8c:34:52:e5:
                    2a:b8:10:c7:9f:65:13:ba:50:4b:00:d6:e3:75:ba:
                    6a:27:fc:c1:26:53:1d:2d:85:eb:94:6a:6c:25:4f:
                    4c:f8:1b:16:0d:cc:a3:d3:99:3f:91:3a:70:a2:5b:
                    62:00:b9:85:44:83:89:f0:15:b2:ef:b2:8d:56:32:
                    47:05:49:2e:fd:cb:19:c7:bd:e9:e5:ff:66:cc:ba:
                    8d:3a:be:bd:4f:db:a4:36:e8:39:61:5c:1f:20:a6:
                    86:a4:c5:c0:5f:7b:6c:a8:9d:e7:6d:32:51:ef:51:
                    5c:fd:a6:52:7d:00:77:7f:33:60:16:72:d7:6b:3f:
                    5b:cf:13:14:bb:39:89:8d:3f:34:05:a2:2f:ac:bf:
                    b1:d9
                Exponent: 65537 (0x10001)
        X509v3 extensions:
            X509v3 Subject Key Identifier: 
                83:6F:0A:BA:49:6A:6F:CB:CB:4A:5D:DD:EE:DF:FF:83:6A:B6:CC:30
            X509v3 Authority Key Identifier: 
                keyid:64:04:6B:53:6C:01:60:57:A0:47:FA:CB:98:02:2D:6F:01:9A:10:C3

            X509v3 Basic Constraints: 
                CA:FALSE
            X509v3 Key Usage: 
                Digital Signature, Key Encipherment
            X509v3 Subject Alternative Name: 
                DNS:example.com, DNS:www.example.com, DNS:mail.example.com, DNS:ftp.example.com
            Netscape Comment: 
                OpenSSL Generated Certificate
    Signature Algorithm: sha256WithRSAEncryption
         66:4d:b0:f1:7a:8e:0a:89:65:9f:3c:05:2c:f2:24:7d:21:9e:
         f2:f4:37:d9:21:e5:bb:2f:ea:ae:f4:db:85:27:b5:df:a7:4e:
         0e:f3:95:ec:b3:cc:ae:0c:2e:1d:0f:f5:44:58:05:72:39:60:
         5c:2f:3f:ce:9b:69:7f:e8:23:66:60:06:ac:1f:47:65:42:8d:
         64:93:0f:fc:93:18:d9:c1:ff:5b:13:b7:01:37:dc:e5:af:12:
         64:cd:7b:07:60:7f:c7:d4:11:b8:6d:da:46:7a:10:c9:b2:45:
         af:13:cb:d9:ca:b3:b3:af:92:8b:63:b2:d3:85:46:7f:68:3f:
         1f:91:8a:cf:15:6f:21:6e:9a:73:b3:52:58:6c:9e:8b:f1:6a:
         5c:49:0b:6d:98:ec:a1:f0:5a:b0:ab:35:4d:09:a1:6d:17:b3:
         e0:ac:d9:74:a5:75:fa:ae:63:b5:bd:41:d9:d3:4a:fb:44:0c:
         b5:8c:b9:69:21:46:5d:9c:57:f0:a2:d8:76:95:3c:c5:ad:77:
         91:fe:1c:b6:c7:d6:b5:92:54:50:f6:a6:76:85:64:f0:50:fc:
         52:5b:eb:1e:0e:a2:34:e9:87:89:09:81:58:86:50:0c:ed:7e:
         4a:10:d0:2d:27:4e:7c:7c:4d:fc:16:4b:90:f7:17:e1:48:0d:
         6c:4c:aa:96:f5:63:e3:0e:7b:54:b5:a3:33:2a:ae:04:31:b9:
         26:35:a2:08:2f:41:22:77:7b:ba:52:7f:17:86:32:38:b2:83:
         60:78:af:85:63:2a:e7:19:cf:33:9e:ae:dd:c2:7d:a5:90:c0:
         56:cb:c6:29:69:70:21:e7:18:7b:fa:f0:db:62:62:5d:36:d8:
         00:22:04:1b:64:4d:f8:fe:b2:c2:f0:b5:53:ca:48:7d:53:29:
         e0:92:fc:86:0c:ba:23:56:0a:16:22:33:0b:cb:10:bc:b6:d2:
         70:22:e6:7e:1a:63:2b:ff:3d:a2:37:bd:ca:a9:28:9a:ed:65:
         25:91:a6:e7:9d:c5:2c:22:88:9a:fd:0a:48:c6:42:a1:f5:33:
         3c:08:fc:b1:9e:cb:ef:de:ed:90:b9:71:e3:a1:37:f7:4f:a9:
         43:57:5b:a3:c9:f8:69:3a:f6:78:d2:38:9d:5c:ac:83:d2:7d:
         78:ae:98:a1:e0:c8:a7:db:97:9b:ff:7d:fe:ce:03:38:89:87:
         d2:75:58:17:ff:78:94:6c:a9:14:eb:15:e9:97:36:7e:fd:09:
         ea:fe:db:79:01:93:7c:0d:51:50:00:ef:bb:6b:3f:a6:19:94:
         f6:01:b9:cb:39:a8:0e:87:b0:b7:86:33:31:45:9c:5b:3d:75:
         ac:40:d0:ee:05:bd:c9:c8
-----BEGIN CERTIFICATE-----
MIIFITCCAwmgAwIBAgIBFTANBgkqhkiG9w0BAQsFADCBhzELMAkGA1UEBhMCSU4x
DjAMBgNVBAgMBURlbGhpMQ4wDAYDVQQHDAVEZWxoaTEOMAwGA1UECgwFSUlJVEQx
CzAJBgNVBAsMAk5TMREwDwYDVQQDDAhBbnNodW1hbjEoMCYGCSqGSIb3DQEJARYZ
YW5zaHVtYW4xNDAyMUBpaWl0ZC5hYy5pbjAeFw0xNjExMjAxODE0NTRaFw0xOTA4
MTcxODE0NTRaMEgxCzAJBgNVBAYTAklOMQ4wDAYDVQQIDAVEZWxoaTEMMAoGA1UE
BwwDTkNSMQ4wDAYDVQQKDAVJSUlURDELMAkGA1UEAwwCTlMwggEiMA0GCSqGSIb3
DQEBAQUAA4IBDwAwggEKAoIBAQDiNQKC9SbCcVEtNxgv9h7Zp06dY56GcmVEuLKI
1uqiZbKqPCsgUTBs4MbimxliUYEq2L/KAz0SwmoF1spxHifLFd6dHfNWKgxXUfo7
C7/7HxaP6U/9pCMstkKDOAfX2Cxvgipewl1d/y3RM7rVRFK9T/NEjDRS5Sq4EMef
ZRO6UEsA1uN1umon/MEmUx0theuUamwlT0z4GxYNzKPTmT+ROnCiW2IAuYVEg4nw
FbLvso1WMkcFSS79yxnHvenl/2bMuo06vr1P26Q26DlhXB8gpoakxcBfe2yonedt
MlHvUVz9plJ9AHd/M2AWctdrP1vPExS7OYmNPzQFoi+sv7HZAgMBAAGjgdUwgdIw
HQYDVR0OBBYEFINvCrpJam/Ly0pd3e7f/4NqtswwMB8GA1UdIwQYMBaAFGQEa1Ns
AWBXoEf6y5gCLW8BmhDDMAkGA1UdEwQCMAAwCwYDVR0PBAQDAgWgMEoGA1UdEQRD
MEGCC2V4YW1wbGUuY29tgg93d3cuZXhhbXBsZS5jb22CEG1haWwuZXhhbXBsZS5j
b22CD2Z0cC5leGFtcGxlLmNvbTAsBglghkgBhvhCAQ0EHxYdT3BlblNTTCBHZW5l
cmF0ZWQgQ2VydGlmaWNhdGUwDQYJKoZIhvcNAQELBQADggIBAGZNsPF6jgqJZZ88
BSzyJH0hnvL0N9kh5bsv6q7024Untd+nTg7zleyzzK4MLh0P9URYBXI5YFwvP86b
aX/oI2ZgBqwfR2VCjWSTD/yTGNnB/1sTtwE33OWvEmTNewdgf8fUEbht2kZ6EMmy
Ra8Ty9nKs7OvkotjstOFRn9oPx+Ris8VbyFumnOzUlhsnovxalxJC22Y7KHwWrCr
NU0JoW0Xs+Cs2XSldfquY7W9QdnTSvtEDLWMuWkhRl2cV/Ci2HaVPMWtd5H+HLbH
1rWSVFD2pnaFZPBQ/FJb6x4OojTph4kJgViGUAztfkoQ0C0nTnx8TfwWS5D3F+FI
DWxMqpb1Y+MOe1S1ozMqrgQxuSY1oggvQSJ3e7pSfxeGMjiyg2B4r4VjKucZzzOe
rt3CfaWQwFbLxilpcCHnGHv68NtiYl022AAiBBtkTfj+ssLwtVPKSH1TKeCS/IYM
uiNWChYiMwvLELy20nAi5n4aYyv/PaI3vcqpKJrtZSWRpuedxSwiiJr9CkjGQqH1
MzwI/LGey+/e7ZC5ceOhN/dPqUNXW6PJ+Gk69njSOJ1crIPSfXiumKHgyKfbl5v/
ff7OAziJh9J1WBf/eJRsqRTrFemXNn79Cer+23kBk3wNUVAA77trP6YZlPYBucs5
qA6HsLeGMzFFnFs9daxA0O4FvcnI
-----END CERTIFICATE-----
