Certificate:
    Data:
        Version: 3 (0x2)
        Serial Number: 22 (0x16)
    Signature Algorithm: sha256WithRSAEncryption
        Issuer: C=IN, ST=Delhi, L=Delhi, O=IIITD, OU=NS, CN=Anshuman/emailAddress=anshuman14021@iiitd.ac.in
        Validity
            Not Before: Nov 20 18:15:01 2016 GMT
            Not After : Aug 17 18:15:01 2019 GMT
        Subject: C=IN, ST=Delhi, L=NCR, O=IIITD, CN=NS
        Subject Public Key Info:
            Public Key Algorithm: rsaEncryption
                Public-Key: (2048 bit)
                Modulus:
                    00:d3:a3:2a:b5:4a:cb:aa:7f:26:59:97:a7:5c:f4:
                    a9:5f:6b:28:59:13:fe:41:4a:1b:9c:52:48:4c:e4:
                    b0:bf:57:5a:72:d3:7e:e4:c8:6b:93:a5:1f:d8:08:
                    02:78:e0:95:d5:ab:cf:41:79:e3:f7:fb:d8:08:f2:
                    93:59:2b:17:5e:39:63:16:0d:a8:f1:61:d2:c5:ee:
                    34:27:7c:7a:4a:29:b3:06:70:90:8a:cb:36:ba:ba:
                    e1:2c:c2:bd:90:91:bb:f0:73:58:5a:44:ed:ee:dc:
                    85:dc:3b:f0:3f:5b:7c:54:e9:ce:d2:78:66:01:69:
                    3f:93:76:4e:11:36:12:d5:55:c8:b6:c7:52:a2:f5:
                    92:fa:cc:27:6b:0a:13:a4:e4:3d:32:28:bc:fc:a9:
                    0a:8c:55:8d:ec:41:12:7d:0f:78:db:ec:60:36:38:
                    c5:3c:3d:f3:55:e7:12:87:bd:d3:70:a9:1b:44:eb:
                    e1:c4:7a:69:90:82:21:9c:7b:82:9d:d7:9e:ff:42:
                    6c:88:25:eb:d7:f9:d9:0e:8c:b6:e1:b7:f7:0c:5f:
                    b8:19:a2:a1:61:52:a6:9f:3a:58:b2:f3:76:37:e8:
                    79:ff:fc:13:9d:67:28:b7:29:91:55:ab:7e:9f:53:
                    f5:dd:11:de:b7:27:e8:df:d8:e8:f1:b6:42:9a:ca:
                    14:fb
                Exponent: 65537 (0x10001)
        X509v3 extensions:
            X509v3 Subject Key Identifier: 
                0A:59:96:E6:66:82:77:66:67:34:0B:4C:BD:D9:8B:8F:02:F1:40:0D
            X509v3 Authority Key Identifier: 
                keyid:64:04:6B:53:6C:01:60:57:A0:47:FA:CB:98:02:2D:6F:01:9A:10:C3

            X509v3 Basic Constraints: 
                CA:FALSE
            X509v3 Key Usage: 
                Digital Signature, Key Encipherment
            X509v3 Subject Alternative Name: 
                DNS:example.com, DNS:www.example.com, DNS:mail.example.com, DNS:ftp.example.com
            Netscape Comment: 
                OpenSSL Generated Certificate
    Signature Algorithm: sha256WithRSAEncryption
         3d:cf:66:78:93:b6:72:b5:49:88:a3:fd:39:f4:20:aa:70:a7:
         f3:af:71:1c:43:c1:aa:f4:10:27:1e:d3:d7:7b:c2:2c:75:de:
         ed:50:16:a8:6f:6f:e8:84:20:3c:44:01:44:a7:8d:fb:28:e3:
         79:bc:ce:3e:df:d0:2e:c9:0c:7b:07:d4:73:25:8e:42:39:72:
         9d:dd:cc:00:02:db:b8:65:3f:20:a1:6a:43:7c:39:6c:43:59:
         29:bf:77:9b:4c:2e:b9:35:f3:fe:d7:df:43:ce:7e:07:61:76:
         e6:28:5d:53:e6:3d:2a:25:43:c2:f5:9c:df:14:46:da:f6:25:
         75:60:27:1a:82:97:72:e7:91:ab:47:28:07:b9:10:2f:04:e4:
         e7:f6:80:bc:1a:05:51:0c:64:26:9c:0d:75:fd:20:67:84:50:
         2c:9d:2d:14:cc:f6:a2:cc:ff:14:28:8c:2e:ee:4f:dd:84:e6:
         2c:4d:69:2d:cd:99:99:70:11:31:a8:5e:d5:e7:5b:61:09:81:
         f8:73:b9:c2:7f:5a:ef:22:40:6c:04:c6:8e:34:96:fa:ca:c3:
         e8:05:6f:b8:ff:5d:26:4b:4e:50:3c:96:72:03:29:7a:93:18:
         3f:89:2f:61:61:ef:0a:ab:f1:f8:ef:da:17:c5:9c:9c:08:62:
         e2:5a:95:12:7e:21:45:24:85:1d:ed:f5:0e:1b:99:84:d0:33:
         eb:6c:38:32:3b:4f:0a:95:15:65:0e:9d:7f:6a:02:7a:3e:a6:
         f7:ed:4a:a8:82:09:53:91:4c:4f:f4:85:b6:6e:21:0a:b6:cd:
         7f:17:5a:97:2b:a0:56:b6:a1:c6:24:6b:43:94:a8:fd:40:b2:
         36:91:fa:8c:91:cf:ec:e1:ce:b9:a3:e3:34:3d:d0:ab:8e:37:
         81:cf:e3:a4:dc:d2:b1:7b:62:35:9c:f6:e7:12:71:b7:b7:73:
         96:c4:6f:22:95:cf:04:dd:5e:aa:a9:7a:30:9a:ae:57:94:7a:
         0c:77:2b:8f:44:fb:b4:ab:cd:eb:35:bd:ac:85:43:22:14:4e:
         6c:53:10:54:a1:3f:49:a2:8f:94:48:88:61:5d:58:c1:34:bd:
         c6:94:3b:e5:3c:b6:17:e9:4c:0c:1c:3c:62:ee:14:bf:9e:21:
         d0:ce:c4:50:aa:43:d1:db:3c:6e:1a:06:c4:af:4c:e7:90:52:
         7a:61:e9:c9:36:bf:97:9e:e5:98:c9:34:d1:47:58:1a:89:25:
         53:8c:73:61:6c:ab:80:05:4e:52:88:40:28:6c:59:d8:aa:fe:
         de:a0:bd:d7:78:9c:98:5c:56:26:9c:77:19:64:d9:75:f3:51:
         c6:f1:57:8d:fc:66:46:c2
-----BEGIN CERTIFICATE-----
MIIFITCCAwmgAwIBAgIBFjANBgkqhkiG9w0BAQsFADCBhzELMAkGA1UEBhMCSU4x
DjAMBgNVBAgMBURlbGhpMQ4wDAYDVQQHDAVEZWxoaTEOMAwGA1UECgwFSUlJVEQx
CzAJBgNVBAsMAk5TMREwDwYDVQQDDAhBbnNodW1hbjEoMCYGCSqGSIb3DQEJARYZ
YW5zaHVtYW4xNDAyMUBpaWl0ZC5hYy5pbjAeFw0xNjExMjAxODE1MDFaFw0xOTA4
MTcxODE1MDFaMEgxCzAJBgNVBAYTAklOMQ4wDAYDVQQIDAVEZWxoaTEMMAoGA1UE
BwwDTkNSMQ4wDAYDVQQKDAVJSUlURDELMAkGA1UEAwwCTlMwggEiMA0GCSqGSIb3
DQEBAQUAA4IBDwAwggEKAoIBAQDToyq1SsuqfyZZl6dc9KlfayhZE/5BShucUkhM
5LC/V1py037kyGuTpR/YCAJ44JXVq89BeeP3+9gI8pNZKxdeOWMWDajxYdLF7jQn
fHpKKbMGcJCKyza6uuEswr2Qkbvwc1haRO3u3IXcO/A/W3xU6c7SeGYBaT+Tdk4R
NhLVVci2x1Ki9ZL6zCdrChOk5D0yKLz8qQqMVY3sQRJ9D3jb7GA2OMU8PfNV5xKH
vdNwqRtE6+HEemmQgiGce4Kd157/QmyIJevX+dkOjLbht/cMX7gZoqFhUqafOliy
83Y36Hn//BOdZyi3KZFVq36fU/XdEd63J+jf2OjxtkKayhT7AgMBAAGjgdUwgdIw
HQYDVR0OBBYEFApZluZmgndmZzQLTL3Zi48C8UANMB8GA1UdIwQYMBaAFGQEa1Ns
AWBXoEf6y5gCLW8BmhDDMAkGA1UdEwQCMAAwCwYDVR0PBAQDAgWgMEoGA1UdEQRD
MEGCC2V4YW1wbGUuY29tgg93d3cuZXhhbXBsZS5jb22CEG1haWwuZXhhbXBsZS5j
b22CD2Z0cC5leGFtcGxlLmNvbTAsBglghkgBhvhCAQ0EHxYdT3BlblNTTCBHZW5l
cmF0ZWQgQ2VydGlmaWNhdGUwDQYJKoZIhvcNAQELBQADggIBAD3PZniTtnK1SYij
/Tn0IKpwp/OvcRxDwar0ECce09d7wix13u1QFqhvb+iEIDxEAUSnjfso43m8zj7f
0C7JDHsH1HMljkI5cp3dzAAC27hlPyChakN8OWxDWSm/d5tMLrk18/7X30POfgdh
duYoXVPmPSolQ8L1nN8URtr2JXVgJxqCl3LnkatHKAe5EC8E5Of2gLwaBVEMZCac
DXX9IGeEUCydLRTM9qLM/xQojC7uT92E5ixNaS3NmZlwETGoXtXnW2EJgfhzucJ/
Wu8iQGwExo40lvrKw+gFb7j/XSZLTlA8lnIDKXqTGD+JL2Fh7wqr8fjv2hfFnJwI
YuJalRJ+IUUkhR3t9Q4bmYTQM+tsODI7TwqVFWUOnX9qAno+pvftSqiCCVORTE/0
hbZuIQq2zX8XWpcroFa2ocYka0OUqP1AsjaR+oyRz+zhzrmj4zQ90KuON4HP46Tc
0rF7YjWc9ucScbe3c5bEbyKVzwTdXqqpejCarleUegx3K49E+7Srzes1vayFQyIU
TmxTEFShP0mij5RIiGFdWME0vcaUO+U8thfpTAwcPGLuFL+eIdDOxFCqQ9HbPG4a
BsSvTOeQUnph6ck2v5ee5ZjJNNFHWBqJJVOMc2Fsq4AFTlKIQChsWdiq/t6gvdd4
nJhcViacdxlk2XXzUcbxV438ZkbC
-----END CERTIFICATE-----
