Certificate:
    Data:
        Version: 3 (0x2)
        Serial Number: 23 (0x17)
    Signature Algorithm: sha256WithRSAEncryption
        Issuer: C=IN, ST=Delhi, L=Delhi, O=IIITD, OU=NS, CN=Anshuman/emailAddress=anshuman14021@iiitd.ac.in
        Validity
            Not Before: Nov 20 18:19:53 2016 GMT
            Not After : Aug 17 18:19:53 2019 GMT
        Subject: C=IN, ST=Delhi, L=NCR, O=IIITD, CN=NS
        Subject Public Key Info:
            Public Key Algorithm: rsaEncryption
                Public-Key: (2048 bit)
                Modulus:
                    00:ca:4b:b1:85:12:77:0a:65:5d:62:25:7b:38:dc:
                    1e:3a:07:5d:58:d6:d7:b9:0c:57:29:61:cc:23:54:
                    ef:83:78:2f:bc:f8:a5:be:ed:c4:ba:00:19:8c:73:
                    3c:c9:ab:40:40:d6:3f:65:70:c0:e0:60:20:9f:45:
                    4b:71:0c:22:58:8f:e1:87:b7:a8:27:71:20:57:8d:
                    49:67:64:f4:7d:a4:7d:f1:2b:7e:9f:48:20:0f:87:
                    4a:b0:c6:2d:21:18:d6:63:a6:57:e5:d0:34:d6:53:
                    1c:14:f4:55:22:a0:c0:44:ac:43:22:5e:bd:1a:bc:
                    1d:dd:87:a3:9d:4d:c2:94:29:54:d0:48:ce:b1:48:
                    3a:78:b8:6d:e3:34:95:a9:37:d4:c4:6d:ee:e0:b8:
                    82:42:8c:a8:08:eb:70:4a:22:8c:03:8f:08:3f:c1:
                    1d:76:37:af:b0:12:d0:6a:13:c1:85:ac:c9:6e:85:
                    7c:ee:c0:21:0e:93:4f:9a:ea:d9:82:1d:25:44:9a:
                    15:47:5a:0e:b2:41:6a:6f:be:00:97:6b:3c:cc:ce:
                    1b:df:f8:a0:c2:21:0a:13:f5:0d:59:fb:b0:33:01:
                    e7:de:1e:6a:a1:98:5f:f3:15:76:af:6f:c1:bd:ef:
                    eb:f7:f3:4a:c3:95:a3:80:6d:e5:51:38:74:43:01:
                    19:e9
                Exponent: 65537 (0x10001)
        X509v3 extensions:
            X509v3 Subject Key Identifier: 
                A9:3F:BF:A2:BD:46:02:6D:A8:C0:85:9B:E1:E3:46:E4:54:5B:34:95
            X509v3 Authority Key Identifier: 
                keyid:64:04:6B:53:6C:01:60:57:A0:47:FA:CB:98:02:2D:6F:01:9A:10:C3

            X509v3 Basic Constraints: 
                CA:FALSE
            X509v3 Key Usage: 
                Digital Signature, Key Encipherment
            X509v3 Subject Alternative Name: 
                DNS:example.com, DNS:www.example.com, DNS:mail.example.com, DNS:ftp.example.com
            Netscape Comment: 
                OpenSSL Generated Certificate
    Signature Algorithm: sha256WithRSAEncryption
         69:6d:71:9e:cd:42:5d:d8:34:7c:e8:87:e1:76:72:48:fc:08:
         fc:87:e9:3f:9b:e8:8a:1f:fb:b3:22:2b:87:76:f1:fb:d2:0b:
         e4:c1:71:16:1e:d1:7d:5d:92:ab:39:f4:6a:f2:73:2a:ce:63:
         1d:04:29:20:7a:09:69:47:6d:88:24:7f:24:11:0b:3b:79:dd:
         23:98:d7:21:b3:07:ab:20:4e:44:46:44:d1:33:87:36:b7:ee:
         e4:30:2d:9e:84:a2:5e:d1:b5:f3:0e:6c:96:d9:3a:f7:8a:ec:
         57:c5:b7:f6:4c:14:e3:92:64:88:9b:98:99:d4:c3:86:93:31:
         18:cf:b8:40:f8:34:e9:81:a5:b2:e9:45:95:c4:bc:06:f2:5d:
         48:ae:72:61:37:5a:e7:dd:33:a7:da:9a:06:14:72:9e:58:41:
         f5:02:ca:df:16:7d:0d:0e:7c:76:b2:c5:9d:7f:1e:d0:33:93:
         fa:25:4d:cc:69:9f:6a:b1:05:35:3a:15:c2:9b:59:25:1d:2a:
         bc:fa:90:cf:ab:f5:52:51:37:2a:85:00:98:aa:74:1b:49:56:
         fe:70:29:d9:9d:0a:7f:c5:4a:3b:d8:94:6c:16:de:18:64:a6:
         29:4e:dd:d9:18:68:6e:9e:2f:32:b8:f8:9c:c0:52:a2:61:36:
         98:29:fb:ad:4e:8c:77:a2:41:a6:ce:a3:6a:02:ed:0f:51:12:
         7a:98:c5:2b:95:46:e6:92:af:2e:7c:2d:4c:ee:51:79:37:25:
         72:db:a2:54:90:76:59:de:ac:ab:06:76:20:c8:1b:c8:97:9f:
         66:a2:a5:f1:a4:22:fa:d4:f9:d5:e8:c0:10:fd:0b:34:4c:f3:
         8e:b0:c9:a8:ac:c2:70:45:76:6b:49:51:f4:1c:8f:c0:92:47:
         30:87:56:da:cd:84:4f:c6:a8:98:89:4a:64:15:69:b9:ff:19:
         21:12:e4:f0:95:93:15:2d:b0:bb:67:03:00:0c:8e:a7:e5:73:
         a0:f6:46:7b:3d:33:7c:a3:c0:53:c0:36:49:7e:3e:7d:c4:f0:
         c6:f0:16:39:33:14:e0:83:6c:50:de:58:a0:0e:e4:f6:b7:cd:
         d2:f0:bd:ab:8e:dd:19:26:0b:be:af:c3:25:0c:c6:77:fe:db:
         8b:78:1c:10:08:54:6f:9b:6e:f3:6b:f4:1f:be:11:6c:dc:29:
         db:88:fb:b1:72:8e:f2:d3:20:20:e0:71:fb:8c:2e:e8:60:8c:
         d9:4c:04:30:13:9c:8d:b6:28:ec:23:f7:72:f4:20:d1:7a:0c:
         e5:78:ea:8b:bd:7a:5d:5e:79:95:e4:86:ef:59:f7:76:00:02:
         ba:7b:a4:d9:7b:93:22:ca
-----BEGIN CERTIFICATE-----
MIIFITCCAwmgAwIBAgIBFzANBgkqhkiG9w0BAQsFADCBhzELMAkGA1UEBhMCSU4x
DjAMBgNVBAgMBURlbGhpMQ4wDAYDVQQHDAVEZWxoaTEOMAwGA1UECgwFSUlJVEQx
CzAJBgNVBAsMAk5TMREwDwYDVQQDDAhBbnNodW1hbjEoMCYGCSqGSIb3DQEJARYZ
YW5zaHVtYW4xNDAyMUBpaWl0ZC5hYy5pbjAeFw0xNjExMjAxODE5NTNaFw0xOTA4
MTcxODE5NTNaMEgxCzAJBgNVBAYTAklOMQ4wDAYDVQQIDAVEZWxoaTEMMAoGA1UE
BwwDTkNSMQ4wDAYDVQQKDAVJSUlURDELMAkGA1UEAwwCTlMwggEiMA0GCSqGSIb3
DQEBAQUAA4IBDwAwggEKAoIBAQDKS7GFEncKZV1iJXs43B46B11Y1te5DFcpYcwj
VO+DeC+8+KW+7cS6ABmMczzJq0BA1j9lcMDgYCCfRUtxDCJYj+GHt6gncSBXjUln
ZPR9pH3xK36fSCAPh0qwxi0hGNZjplfl0DTWUxwU9FUioMBErEMiXr0avB3dh6Od
TcKUKVTQSM6xSDp4uG3jNJWpN9TEbe7guIJCjKgI63BKIowDjwg/wR12N6+wEtBq
E8GFrMluhXzuwCEOk0+a6tmCHSVEmhVHWg6yQWpvvgCXazzMzhvf+KDCIQoT9Q1Z
+7AzAefeHmqhmF/zFXavb8G97+v380rDlaOAbeVROHRDARnpAgMBAAGjgdUwgdIw
HQYDVR0OBBYEFKk/v6K9RgJtqMCFm+HjRuRUWzSVMB8GA1UdIwQYMBaAFGQEa1Ns
AWBXoEf6y5gCLW8BmhDDMAkGA1UdEwQCMAAwCwYDVR0PBAQDAgWgMEoGA1UdEQRD
MEGCC2V4YW1wbGUuY29tgg93d3cuZXhhbXBsZS5jb22CEG1haWwuZXhhbXBsZS5j
b22CD2Z0cC5leGFtcGxlLmNvbTAsBglghkgBhvhCAQ0EHxYdT3BlblNTTCBHZW5l
cmF0ZWQgQ2VydGlmaWNhdGUwDQYJKoZIhvcNAQELBQADggIBAGltcZ7NQl3YNHzo
h+F2ckj8CPyH6T+b6Iof+7MiK4d28fvSC+TBcRYe0X1dkqs59GrycyrOYx0EKSB6
CWlHbYgkfyQRCzt53SOY1yGzB6sgTkRGRNEzhza37uQwLZ6Eol7RtfMObJbZOveK
7FfFt/ZMFOOSZIibmJnUw4aTMRjPuED4NOmBpbLpRZXEvAbyXUiucmE3WufdM6fa
mgYUcp5YQfUCyt8WfQ0OfHayxZ1/HtAzk/olTcxpn2qxBTU6FcKbWSUdKrz6kM+r
9VJRNyqFAJiqdBtJVv5wKdmdCn/FSjvYlGwW3hhkpilO3dkYaG6eLzK4+JzAUqJh
Npgp+61OjHeiQabOo2oC7Q9REnqYxSuVRuaSry58LUzuUXk3JXLbolSQdlnerKsG
diDIG8iXn2aipfGkIvrU+dXowBD9CzRM846wyaiswnBFdmtJUfQcj8CSRzCHVtrN
hE/GqJiJSmQVabn/GSES5PCVkxUtsLtnAwAMjqflc6D2Rns9M3yjwFPANkl+Pn3E
8MbwFjkzFOCDbFDeWKAO5Pa3zdLwvauO3RkmC76vwyUMxnf+24t4HBAIVG+bbvNr
9B++EWzcKduI+7FyjvLTICDgcfuMLuhgjNlMBDATnI22KOwj93L0INF6DOV46ou9
el1eeZXkhu9Z93YAArp7pNl7kyLK
-----END CERTIFICATE-----
