Certificate:
    Data:
        Version: 3 (0x2)
        Serial Number: 24 (0x18)
    Signature Algorithm: sha256WithRSAEncryption
        Issuer: C=IN, ST=Delhi, L=Delhi, O=IIITD, OU=NS, CN=Anshuman/emailAddress=anshuman14021@iiitd.ac.in
        Validity
            Not Before: Nov 20 18:19:59 2016 GMT
            Not After : Aug 17 18:19:59 2019 GMT
        Subject: C=IN, ST=Delhi, L=NCR, O=IIITD, CN=NS
        Subject Public Key Info:
            Public Key Algorithm: rsaEncryption
                Public-Key: (2048 bit)
                Modulus:
                    00:db:4f:af:68:89:61:80:01:33:85:b8:51:4d:18:
                    b1:69:f1:81:f7:f8:1e:73:c4:3d:57:c5:df:c4:88:
                    a6:b0:c1:27:f6:fa:ac:d4:b7:0b:fb:1d:b2:9a:3f:
                    e9:04:40:69:ba:d9:23:27:02:9c:ec:c5:8d:0d:12:
                    dd:54:3c:01:14:84:f0:7e:21:97:71:8c:09:34:06:
                    50:aa:c8:52:c5:a7:b9:4f:a8:76:2c:c6:c4:b6:45:
                    06:91:06:8e:ff:67:7b:4e:be:a5:b8:36:fe:d3:bd:
                    bb:54:fb:73:cc:8c:39:45:fc:c9:d3:b2:df:12:2d:
                    cb:bd:29:ac:24:df:8d:47:66:c6:cf:85:38:42:d3:
                    4a:1e:ae:56:a3:43:94:08:c0:86:ce:ff:de:fe:78:
                    df:d5:6b:57:c9:5c:a2:bf:b6:2a:1d:28:b8:ff:22:
                    8c:15:ba:6f:49:6c:b0:bb:5d:28:55:8d:10:77:f9:
                    6d:b2:00:30:2d:9e:87:da:09:04:16:09:e2:8d:80:
                    fe:4e:2f:28:44:0f:7d:42:fc:e1:18:b9:78:61:2b:
                    16:dc:5b:1c:75:52:81:44:a0:a3:92:ac:51:bf:a4:
                    14:69:dd:29:f4:f1:fd:85:a7:f0:ca:8c:b3:d3:3b:
                    e5:4c:34:20:1d:47:15:9a:d3:85:cc:da:f9:91:4a:
                    26:e1
                Exponent: 65537 (0x10001)
        X509v3 extensions:
            X509v3 Subject Key Identifier: 
                A6:D2:0D:98:8B:64:20:87:49:F8:BC:3A:D0:BE:B9:BA:37:E6:19:17
            X509v3 Authority Key Identifier: 
                keyid:64:04:6B:53:6C:01:60:57:A0:47:FA:CB:98:02:2D:6F:01:9A:10:C3

            X509v3 Basic Constraints: 
                CA:FALSE
            X509v3 Key Usage: 
                Digital Signature, Key Encipherment
            X509v3 Subject Alternative Name: 
                DNS:example.com, DNS:www.example.com, DNS:mail.example.com, DNS:ftp.example.com
            Netscape Comment: 
                OpenSSL Generated Certificate
    Signature Algorithm: sha256WithRSAEncryption
         7b:f6:d1:56:09:87:7f:50:62:56:4a:8e:f2:21:34:69:e8:5c:
         a1:ac:98:73:a6:3c:74:1b:8f:94:15:c5:87:31:c5:90:96:c7:
         97:73:0f:3c:0d:65:d6:f9:03:d4:3a:ad:6a:cc:92:f7:29:8d:
         54:3c:22:16:1e:b8:e6:0d:ae:4d:c3:2f:1e:a0:9e:c7:15:7a:
         24:f6:42:a9:dd:2e:c3:bc:69:f4:6e:53:fe:e4:30:a9:25:b7:
         12:50:b7:cc:a8:0e:c8:ab:2e:4e:b6:07:1e:c1:aa:a6:58:18:
         70:06:52:2e:8f:bc:55:08:f2:72:54:54:28:9e:8a:fa:4c:65:
         38:eb:8d:8e:33:2b:73:ae:fc:ea:a3:25:7b:ce:6c:00:21:c1:
         e8:c9:ad:a3:a1:3d:c9:a1:04:e2:1e:7a:6a:d4:68:ff:d5:3b:
         bd:53:ef:24:a8:fc:c7:b3:7e:ba:cd:2d:84:5a:2e:c3:79:0e:
         c4:7e:95:bc:3f:cb:be:ef:96:48:2e:9a:78:3a:7c:2a:71:c2:
         b9:2e:c7:4b:a6:25:b4:98:3a:f5:a5:42:5e:41:94:82:7d:38:
         2f:b5:9c:ed:cb:a3:94:58:30:b2:a6:07:f0:2e:10:03:34:6c:
         f0:9c:f2:c8:0d:ed:bf:e0:05:3e:e0:ab:a7:e0:16:44:3f:4f:
         56:01:f0:ae:6e:ba:38:68:25:53:b8:da:1a:83:63:fd:e3:dd:
         03:74:97:55:ad:5f:6b:2b:86:e9:81:8b:59:ea:35:12:74:f4:
         26:0e:cd:0a:1b:16:37:bd:ec:10:a2:1b:7b:9f:f5:ba:0e:cb:
         94:47:1f:76:64:cb:ae:83:32:39:7e:1b:1b:17:16:90:d0:8d:
         d3:18:61:87:59:8c:2f:65:d6:ff:6b:c5:34:b9:1d:8d:95:1e:
         fe:fb:66:98:1e:29:9f:d0:89:20:4d:66:24:0c:5a:70:01:11:
         c2:42:1b:81:57:af:d4:6d:10:67:a4:f2:e6:5b:7b:ac:f7:8d:
         df:61:f6:2f:f9:59:82:e1:01:0b:f5:fb:f4:0e:13:a3:e3:a5:
         0e:83:fe:22:dd:a8:d5:31:99:e5:f0:60:89:55:4f:dd:d4:f0:
         8b:6c:e0:0e:67:53:41:60:5a:cf:a4:4d:c8:4b:69:0b:24:3e:
         ff:e4:dd:f8:6c:2c:2f:d7:45:0f:17:57:9b:4b:43:f4:e7:41:
         d7:bb:2f:55:30:8b:61:19:78:c8:df:fe:87:d7:ed:50:fe:d5:
         f6:06:f4:32:22:cf:32:7a:e9:ae:2b:32:ba:52:21:df:2f:87:
         45:79:79:36:d0:48:95:d7:cf:94:e3:d4:43:85:1a:03:f0:03:
         50:66:85:8c:fb:b1:b2:e7
-----BEGIN CERTIFICATE-----
MIIFITCCAwmgAwIBAgIBGDANBgkqhkiG9w0BAQsFADCBhzELMAkGA1UEBhMCSU4x
DjAMBgNVBAgMBURlbGhpMQ4wDAYDVQQHDAVEZWxoaTEOMAwGA1UECgwFSUlJVEQx
CzAJBgNVBAsMAk5TMREwDwYDVQQDDAhBbnNodW1hbjEoMCYGCSqGSIb3DQEJARYZ
YW5zaHVtYW4xNDAyMUBpaWl0ZC5hYy5pbjAeFw0xNjExMjAxODE5NTlaFw0xOTA4
MTcxODE5NTlaMEgxCzAJBgNVBAYTAklOMQ4wDAYDVQQIDAVEZWxoaTEMMAoGA1UE
BwwDTkNSMQ4wDAYDVQQKDAVJSUlURDELMAkGA1UEAwwCTlMwggEiMA0GCSqGSIb3
DQEBAQUAA4IBDwAwggEKAoIBAQDbT69oiWGAATOFuFFNGLFp8YH3+B5zxD1Xxd/E
iKawwSf2+qzUtwv7HbKaP+kEQGm62SMnApzsxY0NEt1UPAEUhPB+IZdxjAk0BlCq
yFLFp7lPqHYsxsS2RQaRBo7/Z3tOvqW4Nv7TvbtU+3PMjDlF/MnTst8SLcu9Kawk
341HZsbPhThC00oerlajQ5QIwIbO/97+eN/Va1fJXKK/tiodKLj/IowVum9JbLC7
XShVjRB3+W2yADAtnofaCQQWCeKNgP5OLyhED31C/OEYuXhhKxbcWxx1UoFEoKOS
rFG/pBRp3Sn08f2Fp/DKjLPTO+VMNCAdRxWa04XM2vmRSibhAgMBAAGjgdUwgdIw
HQYDVR0OBBYEFKbSDZiLZCCHSfi8OtC+ubo35hkXMB8GA1UdIwQYMBaAFGQEa1Ns
AWBXoEf6y5gCLW8BmhDDMAkGA1UdEwQCMAAwCwYDVR0PBAQDAgWgMEoGA1UdEQRD
MEGCC2V4YW1wbGUuY29tgg93d3cuZXhhbXBsZS5jb22CEG1haWwuZXhhbXBsZS5j
b22CD2Z0cC5leGFtcGxlLmNvbTAsBglghkgBhvhCAQ0EHxYdT3BlblNTTCBHZW5l
cmF0ZWQgQ2VydGlmaWNhdGUwDQYJKoZIhvcNAQELBQADggIBAHv20VYJh39QYlZK
jvIhNGnoXKGsmHOmPHQbj5QVxYcxxZCWx5dzDzwNZdb5A9Q6rWrMkvcpjVQ8IhYe
uOYNrk3DLx6gnscVeiT2QqndLsO8afRuU/7kMKkltxJQt8yoDsirLk62Bx7BqqZY
GHAGUi6PvFUI8nJUVCieivpMZTjrjY4zK3Ou/OqjJXvObAAhwejJraOhPcmhBOIe
emrUaP/VO71T7ySo/MezfrrNLYRaLsN5DsR+lbw/y77vlkgumng6fCpxwrkux0um
JbSYOvWlQl5BlIJ9OC+1nO3Lo5RYMLKmB/AuEAM0bPCc8sgN7b/gBT7gq6fgFkQ/
T1YB8K5uujhoJVO42hqDY/3j3QN0l1WtX2srhumBi1nqNRJ09CYOzQobFje97BCi
G3uf9boOy5RHH3Zky66DMjl+GxsXFpDQjdMYYYdZjC9l1v9rxTS5HY2VHv77Zpge
KZ/QiSBNZiQMWnABEcJCG4FXr9RtEGek8uZbe6z3jd9h9i/5WYLhAQv1+/QOE6Pj
pQ6D/iLdqNUxmeXwYIlVT93U8Its4A5nU0FgWs+kTchLaQskPv/k3fhsLC/XRQ8X
V5tLQ/TnQde7L1Uwi2EZeMjf/ofX7VD+1fYG9DIizzJ66a4rMrpSId8vh0V5eTbQ
SJXXz5Tj1EOFGgPwA1BmhYz7sbLn
-----END CERTIFICATE-----
