Certificate:
    Data:
        Version: 3 (0x2)
        Serial Number: 25 (0x19)
    Signature Algorithm: sha256WithRSAEncryption
        Issuer: C=IN, ST=Delhi, L=Delhi, O=IIITD, OU=NS, CN=Anshuman/emailAddress=anshuman14021@iiitd.ac.in
        Validity
            Not Before: Nov 20 18:25:13 2016 GMT
            Not After : Aug 17 18:25:13 2019 GMT
        Subject: C=IN, ST=Delhi, L=NCR, O=IIITD, CN=NS
        Subject Public Key Info:
            Public Key Algorithm: rsaEncryption
                Public-Key: (2048 bit)
                Modulus:
                    00:dc:29:6f:20:79:f2:51:80:43:51:fa:5b:32:a0:
                    a4:04:88:d4:f2:cf:60:0a:fc:30:d4:0b:9c:2f:85:
                    0a:66:89:43:05:17:6a:27:b5:f8:da:7d:3c:6b:28:
                    9b:ec:f0:92:dd:59:e9:ec:0b:32:ac:07:e5:c3:58:
                    7f:f4:bf:8b:2e:43:5c:ce:0a:3b:5a:87:d6:53:d2:
                    80:0a:21:27:aa:d2:7b:e5:40:26:8f:25:c4:ab:db:
                    8f:11:8f:08:48:07:dc:30:9a:11:a2:05:a8:2a:cd:
                    5d:10:a5:47:81:46:6e:8a:3a:49:29:c6:f5:c8:f0:
                    2a:8b:11:bd:d4:f0:a4:46:88:45:7d:e9:ae:49:ad:
                    d8:a1:72:97:80:94:ee:f0:eb:9c:40:33:a3:41:50:
                    bc:f6:4d:4e:9e:de:a8:d8:bd:4d:c2:82:ea:37:85:
                    24:99:dd:4d:ae:dc:b2:8a:96:37:b5:27:cf:2f:97:
                    7a:73:33:b0:2a:c8:a8:e2:c4:12:0e:03:8c:b3:ab:
                    09:41:b5:30:fe:10:2b:a7:d1:fc:33:7c:80:e4:f1:
                    49:66:85:e6:2b:49:a5:f4:5c:73:45:24:e1:97:82:
                    a7:b0:ec:83:8e:13:b0:4e:e3:79:e8:6b:58:6d:79:
                    83:8d:37:fa:ae:0d:a1:39:7b:e7:ac:67:b9:b9:d7:
                    ce:2b
                Exponent: 65537 (0x10001)
        X509v3 extensions:
            X509v3 Subject Key Identifier: 
                EA:14:1B:0E:55:56:B5:AC:4D:E7:E4:87:25:75:A0:85:29:E6:19:0C
            X509v3 Authority Key Identifier: 
                keyid:64:04:6B:53:6C:01:60:57:A0:47:FA:CB:98:02:2D:6F:01:9A:10:C3

            X509v3 Basic Constraints: 
                CA:FALSE
            X509v3 Key Usage: 
                Digital Signature, Key Encipherment
            X509v3 Subject Alternative Name: 
                DNS:example.com, DNS:www.example.com, DNS:mail.example.com, DNS:ftp.example.com
            Netscape Comment: 
                OpenSSL Generated Certificate
    Signature Algorithm: sha256WithRSAEncryption
         6c:3d:fb:40:03:04:1b:b8:91:95:ab:62:2c:48:bd:02:74:09:
         27:c4:46:2f:a4:f8:b2:e6:cc:af:85:1e:d8:99:a7:2b:04:6e:
         73:82:80:a4:c1:7c:58:d1:cf:6b:6d:a2:7e:a9:12:e9:f6:5e:
         cb:70:d0:92:af:ad:7e:77:29:95:7a:70:3c:a4:12:46:86:1a:
         f4:f6:a6:ed:b0:b2:c0:43:f6:5e:aa:f0:17:58:a7:38:f4:51:
         42:1e:47:b1:71:fc:f0:bd:2a:32:7e:69:83:cd:76:51:3d:14:
         f4:3c:27:a7:48:fb:8b:d7:8d:fc:9b:4b:66:c1:78:9e:06:84:
         c0:42:9b:72:70:57:f8:1b:50:bd:d7:72:48:eb:0c:fb:ae:05:
         25:eb:e8:7e:5c:ab:4e:30:f7:bd:4e:db:3a:18:40:64:e7:68:
         60:1b:90:89:ae:68:ae:62:e8:98:a8:52:1d:72:d7:a2:1a:b0:
         d9:bd:08:c9:ac:1b:b8:30:c9:b1:3a:b2:68:08:ce:01:98:7f:
         38:26:5b:45:9f:56:ac:cb:f2:1d:23:19:44:53:1d:ba:b7:f8:
         43:fa:70:76:ea:96:ef:5f:ac:7f:2c:61:ae:d5:ff:65:7e:65:
         7d:8a:ed:78:ff:c4:a5:43:45:d7:08:78:1d:40:15:05:2d:2e:
         a6:e6:85:d6:4c:b8:eb:15:02:04:2b:d7:35:9e:5a:2a:0b:c5:
         dc:4b:1d:1a:a5:f8:66:bb:77:27:db:e1:3f:f1:6a:58:bb:a3:
         47:78:4c:71:6c:c7:51:06:a6:17:4f:3c:b5:fb:74:34:9f:d1:
         f2:7c:7e:2d:23:a8:94:88:08:6c:1b:99:3e:8d:95:12:aa:d7:
         4c:e8:84:93:44:ec:98:89:ca:0a:6c:0d:c8:b1:88:8a:f0:8a:
         f9:39:b8:96:c9:42:db:9d:ae:4d:2a:ab:f1:5a:e7:17:d0:fb:
         3a:4f:01:8b:da:b3:24:17:44:a3:bd:16:00:5d:7a:d8:a6:c2:
         76:df:83:d8:a8:ed:9a:3e:cd:f7:bf:2e:9d:37:fe:32:e7:a5:
         b8:28:d1:ef:f0:34:78:9d:07:02:d8:dc:78:9a:90:2e:d8:47:
         db:85:7b:98:d3:ee:33:2c:77:d1:d2:d3:a5:28:79:31:7f:43:
         b4:0e:14:cc:41:93:13:07:01:b3:01:db:3c:39:e8:62:04:ba:
         8d:ac:e4:e3:2b:b9:ad:a9:08:cb:c5:27:c5:b3:21:81:34:7f:
         c5:7b:92:c3:53:b0:26:b3:a9:3e:e7:35:d5:5f:1c:b2:76:06:
         e4:16:8b:95:ef:54:1e:6c:98:bc:5c:c7:7f:d3:ac:23:36:fb:
         c6:5f:f2:2a:23:03:ec:0d
-----BEGIN CERTIFICATE-----
MIIFITCCAwmgAwIBAgIBGTANBgkqhkiG9w0BAQsFADCBhzELMAkGA1UEBhMCSU4x
DjAMBgNVBAgMBURlbGhpMQ4wDAYDVQQHDAVEZWxoaTEOMAwGA1UECgwFSUlJVEQx
CzAJBgNVBAsMAk5TMREwDwYDVQQDDAhBbnNodW1hbjEoMCYGCSqGSIb3DQEJARYZ
YW5zaHVtYW4xNDAyMUBpaWl0ZC5hYy5pbjAeFw0xNjExMjAxODI1MTNaFw0xOTA4
MTcxODI1MTNaMEgxCzAJBgNVBAYTAklOMQ4wDAYDVQQIDAVEZWxoaTEMMAoGA1UE
BwwDTkNSMQ4wDAYDVQQKDAVJSUlURDELMAkGA1UEAwwCTlMwggEiMA0GCSqGSIb3
DQEBAQUAA4IBDwAwggEKAoIBAQDcKW8gefJRgENR+lsyoKQEiNTyz2AK/DDUC5wv
hQpmiUMFF2ontfjafTxrKJvs8JLdWensCzKsB+XDWH/0v4suQ1zOCjtah9ZT0oAK
ISeq0nvlQCaPJcSr248RjwhIB9wwmhGiBagqzV0QpUeBRm6KOkkpxvXI8CqLEb3U
8KRGiEV96a5JrdihcpeAlO7w65xAM6NBULz2TU6e3qjYvU3Cguo3hSSZ3U2u3LKK
lje1J88vl3pzM7AqyKjixBIOA4yzqwlBtTD+ECun0fwzfIDk8UlmheYrSaX0XHNF
JOGXgqew7IOOE7BO43noa1hteYONN/quDaE5e+esZ7m5184rAgMBAAGjgdUwgdIw
HQYDVR0OBBYEFOoUGw5VVrWsTefkhyV1oIUp5hkMMB8GA1UdIwQYMBaAFGQEa1Ns
AWBXoEf6y5gCLW8BmhDDMAkGA1UdEwQCMAAwCwYDVR0PBAQDAgWgMEoGA1UdEQRD
MEGCC2V4YW1wbGUuY29tgg93d3cuZXhhbXBsZS5jb22CEG1haWwuZXhhbXBsZS5j
b22CD2Z0cC5leGFtcGxlLmNvbTAsBglghkgBhvhCAQ0EHxYdT3BlblNTTCBHZW5l
cmF0ZWQgQ2VydGlmaWNhdGUwDQYJKoZIhvcNAQELBQADggIBAGw9+0ADBBu4kZWr
YixIvQJ0CSfERi+k+LLmzK+FHtiZpysEbnOCgKTBfFjRz2tton6pEun2Xstw0JKv
rX53KZV6cDykEkaGGvT2pu2wssBD9l6q8BdYpzj0UUIeR7Fx/PC9KjJ+aYPNdlE9
FPQ8J6dI+4vXjfybS2bBeJ4GhMBCm3JwV/gbUL3XckjrDPuuBSXr6H5cq04w971O
2zoYQGTnaGAbkImuaK5i6JioUh1y16IasNm9CMmsG7gwybE6smgIzgGYfzgmW0Wf
VqzL8h0jGURTHbq3+EP6cHbqlu9frH8sYa7V/2V+ZX2K7Xj/xKVDRdcIeB1AFQUt
LqbmhdZMuOsVAgQr1zWeWioLxdxLHRql+Ga7dyfb4T/xali7o0d4THFsx1EGphdP
PLX7dDSf0fJ8fi0jqJSICGwbmT6NlRKq10zohJNE7JiJygpsDcixiIrwivk5uJbJ
Qtudrk0qq/Fa5xfQ+zpPAYvasyQXRKO9FgBdetimwnbfg9io7Zo+zfe/Lp03/jLn
pbgo0e/wNHidBwLY3HiakC7YR9uFe5jT7jMsd9HS06UoeTF/Q7QOFMxBkxMHAbMB
2zw56GIEuo2s5OMrua2pCMvFJ8WzIYE0f8V7ksNTsCazqT7nNdVfHLJ2BuQWi5Xv
VB5smLxcx3/TrCM2+8Zf8iojA+wN
-----END CERTIFICATE-----
