Certificate:
    Data:
        Version: 3 (0x2)
        Serial Number: 26 (0x1a)
    Signature Algorithm: sha256WithRSAEncryption
        Issuer: C=IN, ST=Delhi, L=Delhi, O=IIITD, OU=NS, CN=Anshuman/emailAddress=anshuman14021@iiitd.ac.in
        Validity
            Not Before: Nov 20 18:25:19 2016 GMT
            Not After : Aug 17 18:25:19 2019 GMT
        Subject: C=IN, ST=Delhi, L=NCR, O=IIITD, CN=NS
        Subject Public Key Info:
            Public Key Algorithm: rsaEncryption
                Public-Key: (2048 bit)
                Modulus:
                    00:c4:a5:e4:7c:4f:5b:ea:1c:cb:b6:74:5b:54:45:
                    17:c0:9c:e1:70:36:45:8d:d5:16:47:8e:ef:c4:2e:
                    8f:13:a0:81:0c:d0:10:49:df:c4:ac:d5:86:d2:6a:
                    b0:a6:4b:79:4c:a9:b0:92:1e:4b:8b:ea:90:c6:67:
                    d8:70:0c:00:1c:2a:6b:99:0c:8a:f0:37:d1:99:43:
                    2a:73:ae:a0:41:6d:42:f1:6e:51:89:c3:32:94:f8:
                    78:36:2e:b2:fe:ef:1e:7e:ea:05:62:bd:21:21:e0:
                    40:e4:d3:c6:f8:4c:7e:04:f3:0c:00:ef:22:1c:62:
                    ba:f2:61:01:ae:cf:8d:1b:51:5f:df:54:f9:d8:ab:
                    ac:eb:2f:8d:74:11:2f:c0:15:3e:7f:49:d3:90:da:
                    f9:b9:a7:fa:51:35:bc:94:23:e2:9d:5e:28:41:f0:
                    14:b6:0d:c5:c8:0f:bf:28:a9:38:b5:7a:ce:dc:c9:
                    9c:07:c3:51:0f:15:ad:81:f1:d8:4c:93:41:b1:48:
                    42:26:70:e7:19:65:2f:88:36:40:6d:c4:2e:df:5f:
                    84:d1:39:f4:df:37:71:b1:08:08:86:3c:73:18:ba:
                    42:28:a4:b4:e7:b2:e5:58:99:c4:41:83:ab:65:99:
                    3f:22:01:87:de:56:d5:7f:d2:b4:ae:10:ca:29:51:
                    21:39
                Exponent: 65537 (0x10001)
        X509v3 extensions:
            X509v3 Subject Key Identifier: 
                55:DA:CC:2C:66:59:49:1D:FD:86:46:5B:3A:51:A1:A0:97:A5:86:CF
            X509v3 Authority Key Identifier: 
                keyid:64:04:6B:53:6C:01:60:57:A0:47:FA:CB:98:02:2D:6F:01:9A:10:C3

            X509v3 Basic Constraints: 
                CA:FALSE
            X509v3 Key Usage: 
                Digital Signature, Key Encipherment
            X509v3 Subject Alternative Name: 
                DNS:example.com, DNS:www.example.com, DNS:mail.example.com, DNS:ftp.example.com
            Netscape Comment: 
                OpenSSL Generated Certificate
    Signature Algorithm: sha256WithRSAEncryption
         33:f6:2a:68:24:2c:09:78:d6:cb:b3:1c:ad:f4:81:c9:d5:e7:
         eb:16:4b:77:7a:14:c9:09:0b:0f:94:56:46:9d:96:50:b4:55:
         9b:f5:a0:f5:58:e1:24:5d:47:d4:ac:7b:4e:2f:b3:30:22:24:
         a7:38:97:f6:13:04:ee:25:19:52:98:26:98:82:44:1b:af:ab:
         40:45:4c:52:7e:7a:b0:49:62:7c:3c:b2:c4:91:a2:47:74:80:
         3d:fb:f9:43:d7:d1:fe:8b:e1:8b:b3:3f:72:c2:9f:16:e7:bd:
         a2:8f:19:8c:4e:75:32:5a:67:5f:48:9e:57:a2:0e:24:76:7e:
         9a:aa:14:5e:11:dc:48:f6:02:5f:bb:99:1a:30:ab:95:e2:9d:
         27:25:6d:9e:dd:84:58:67:a7:b2:7a:87:da:b1:b3:92:bb:d1:
         7e:89:a6:d4:2d:b6:ed:1e:e2:fb:bd:2a:b2:41:11:84:0b:bb:
         fc:cc:28:10:30:97:43:8b:0c:6b:f9:0d:66:06:27:d2:77:b9:
         db:85:40:7f:72:41:19:29:85:91:ec:6d:e8:20:a5:3a:29:71:
         b0:8d:6e:d6:01:a0:09:de:80:49:50:de:24:09:84:03:0e:45:
         23:0c:1b:fc:e0:33:18:1d:12:dd:b2:a2:78:08:c4:24:20:8a:
         58:68:7b:dd:b6:57:7e:3a:54:29:21:95:34:61:65:80:59:e7:
         bf:67:70:20:92:24:c0:07:78:32:41:6d:8f:12:88:47:ef:71:
         10:d6:d8:e8:78:38:b8:87:56:42:1f:02:4d:6b:9c:d1:01:5d:
         e4:b9:5a:f7:4b:93:31:c6:a9:3e:58:ce:25:83:eb:29:e5:c7:
         32:13:db:4c:0e:fd:ac:8d:5d:c7:f2:5b:94:38:02:45:34:99:
         0d:8d:65:46:ca:8f:46:97:b7:a7:dd:bd:b9:2e:5d:b0:37:15:
         46:9a:08:6e:aa:c5:20:53:90:fb:f0:cb:e9:f6:10:7b:8f:d7:
         7a:44:9f:6d:b4:fe:bc:7d:05:3b:e1:e0:dc:9a:fc:3c:cb:c6:
         06:25:af:e5:dc:06:e8:2b:01:73:db:05:a8:38:c5:65:21:21:
         aa:18:3a:3b:99:53:7a:51:ad:72:f6:83:f1:37:6d:5d:a2:e6:
         f4:21:4b:8b:d8:c3:5d:7e:9e:82:73:81:b9:90:f4:a8:02:33:
         b4:46:eb:89:01:05:53:3c:74:e1:d1:e6:36:55:0c:45:30:86:
         4a:98:1a:2c:ad:bf:90:05:5c:17:03:ed:c0:6c:1e:f2:5d:ab:
         0a:0b:92:98:64:d5:82:d8:fa:e5:73:b1:dc:09:29:50:1a:34:
         15:79:75:32:e3:ca:0c:9e
-----BEGIN CERTIFICATE-----
MIIFITCCAwmgAwIBAgIBGjANBgkqhkiG9w0BAQsFADCBhzELMAkGA1UEBhMCSU4x
DjAMBgNVBAgMBURlbGhpMQ4wDAYDVQQHDAVEZWxoaTEOMAwGA1UECgwFSUlJVEQx
CzAJBgNVBAsMAk5TMREwDwYDVQQDDAhBbnNodW1hbjEoMCYGCSqGSIb3DQEJARYZ
YW5zaHVtYW4xNDAyMUBpaWl0ZC5hYy5pbjAeFw0xNjExMjAxODI1MTlaFw0xOTA4
MTcxODI1MTlaMEgxCzAJBgNVBAYTAklOMQ4wDAYDVQQIDAVEZWxoaTEMMAoGA1UE
BwwDTkNSMQ4wDAYDVQQKDAVJSUlURDELMAkGA1UEAwwCTlMwggEiMA0GCSqGSIb3
DQEBAQUAA4IBDwAwggEKAoIBAQDEpeR8T1vqHMu2dFtURRfAnOFwNkWN1RZHju/E
Lo8ToIEM0BBJ38Ss1YbSarCmS3lMqbCSHkuL6pDGZ9hwDAAcKmuZDIrwN9GZQypz
rqBBbULxblGJwzKU+Hg2LrL+7x5+6gVivSEh4EDk08b4TH4E8wwA7yIcYrryYQGu
z40bUV/fVPnYq6zrL410ES/AFT5/SdOQ2vm5p/pRNbyUI+KdXihB8BS2DcXID78o
qTi1es7cyZwHw1EPFa2B8dhMk0GxSEImcOcZZS+INkBtxC7fX4TROfTfN3GxCAiG
PHMYukIopLTnsuVYmcRBg6tlmT8iAYfeVtV/0rSuEMopUSE5AgMBAAGjgdUwgdIw
HQYDVR0OBBYEFFXazCxmWUkd/YZGWzpRoaCXpYbPMB8GA1UdIwQYMBaAFGQEa1Ns
AWBXoEf6y5gCLW8BmhDDMAkGA1UdEwQCMAAwCwYDVR0PBAQDAgWgMEoGA1UdEQRD
MEGCC2V4YW1wbGUuY29tgg93d3cuZXhhbXBsZS5jb22CEG1haWwuZXhhbXBsZS5j
b22CD2Z0cC5leGFtcGxlLmNvbTAsBglghkgBhvhCAQ0EHxYdT3BlblNTTCBHZW5l
cmF0ZWQgQ2VydGlmaWNhdGUwDQYJKoZIhvcNAQELBQADggIBADP2KmgkLAl41suz
HK30gcnV5+sWS3d6FMkJCw+UVkadllC0VZv1oPVY4SRdR9Sse04vszAiJKc4l/YT
BO4lGVKYJpiCRBuvq0BFTFJ+erBJYnw8ssSRokd0gD37+UPX0f6L4YuzP3LCnxbn
vaKPGYxOdTJaZ19InleiDiR2fpqqFF4R3Ej2Al+7mRowq5XinSclbZ7dhFhnp7J6
h9qxs5K70X6JptQttu0e4vu9KrJBEYQLu/zMKBAwl0OLDGv5DWYGJ9J3uduFQH9y
QRkphZHsbeggpTopcbCNbtYBoAnegElQ3iQJhAMORSMMG/zgMxgdEt2yongIxCQg
ilhoe922V346VCkhlTRhZYBZ579ncCCSJMAHeDJBbY8SiEfvcRDW2Oh4OLiHVkIf
Ak1rnNEBXeS5WvdLkzHGqT5YziWD6ynlxzIT20wO/ayNXcfyW5Q4AkU0mQ2NZUbK
j0aXt6fdvbkuXbA3FUaaCG6qxSBTkPvwy+n2EHuP13pEn220/rx9BTvh4Nya/DzL
xgYlr+XcBugrAXPbBag4xWUhIaoYOjuZU3pRrXL2g/E3bV2i5vQhS4vYw11+noJz
gbmQ9KgCM7RG64kBBVM8dOHR5jZVDEUwhkqYGiytv5AFXBcD7cBsHvJdqwoLkphk
1YLY+uVzsdwJKVAaNBV5dTLjygye
-----END CERTIFICATE-----
