Certificate:
    Data:
        Version: 3 (0x2)
        Serial Number: 27 (0x1b)
    Signature Algorithm: sha256WithRSAEncryption
        Issuer: C=IN, ST=Delhi, L=Delhi, O=IIITD, OU=NS, CN=Anshuman/emailAddress=anshuman14021@iiitd.ac.in
        Validity
            Not Before: Nov 20 18:28:12 2016 GMT
            Not After : Aug 17 18:28:12 2019 GMT
        Subject: C=IN, ST=Delhi, L=NCR, O=IIITD, CN=NS
        Subject Public Key Info:
            Public Key Algorithm: rsaEncryption
                Public-Key: (2048 bit)
                Modulus:
                    00:f5:f0:fe:0a:8a:43:c1:d0:5b:92:dd:a7:3e:c5:
                    5f:6a:44:9b:40:92:30:c1:9e:62:d6:53:29:50:f5:
                    a2:67:cc:4a:f8:e3:f1:f7:0f:b4:4a:6b:07:7a:9a:
                    09:0d:e5:66:db:80:11:e6:66:08:da:5f:dd:80:9a:
                    49:31:93:f5:dd:55:f9:e3:96:1e:b3:e6:20:17:6a:
                    8b:5c:bf:87:a3:bd:86:ce:f6:5a:a8:3f:fe:d3:d2:
                    30:b2:4d:77:9c:74:b9:56:1d:64:97:a6:69:74:fe:
                    37:c6:b3:8e:9c:91:84:59:94:ce:93:6c:0e:d9:ce:
                    f1:f3:88:e0:f9:3d:ae:e0:29:cb:df:b8:ae:59:f7:
                    ba:9f:03:b7:05:34:16:6a:b9:c8:66:5b:47:9c:46:
                    55:0c:2a:6c:7d:a1:aa:a6:20:fb:99:a6:7b:ee:e2:
                    23:a9:a2:ac:f1:0e:be:98:2b:a7:94:b1:21:c2:0a:
                    a6:48:47:97:6b:64:df:1d:a9:46:cd:2b:b0:54:2f:
                    7b:4b:1f:64:43:bf:1b:7f:1d:a3:4b:47:e3:b1:76:
                    65:54:c4:d9:5f:13:63:d9:b5:79:af:6f:04:8f:02:
                    b2:e2:83:4f:d3:90:45:d5:3b:79:c9:2a:c2:2b:14:
                    98:08:fc:78:db:99:f6:af:58:97:80:c6:06:39:e0:
                    f7:99
                Exponent: 65537 (0x10001)
        X509v3 extensions:
            X509v3 Subject Key Identifier: 
                68:F0:4D:BA:A2:BE:82:28:71:3F:ED:A1:A2:7C:CD:87:65:73:A9:F2
            X509v3 Authority Key Identifier: 
                keyid:64:04:6B:53:6C:01:60:57:A0:47:FA:CB:98:02:2D:6F:01:9A:10:C3

            X509v3 Basic Constraints: 
                CA:FALSE
            X509v3 Key Usage: 
                Digital Signature, Key Encipherment
            X509v3 Subject Alternative Name: 
                DNS:example.com, DNS:www.example.com, DNS:mail.example.com, DNS:ftp.example.com
            Netscape Comment: 
                OpenSSL Generated Certificate
    Signature Algorithm: sha256WithRSAEncryption
         9a:cb:6f:e0:2d:fb:4f:f8:9a:90:8f:96:38:0a:6c:bb:91:a5:
         e1:fc:fe:10:7f:39:79:23:87:d8:4b:8a:ff:ff:1f:80:07:64:
         2d:0f:21:6b:62:09:61:f3:9d:1d:51:ce:7e:c6:60:3e:c6:d2:
         ef:36:cd:c6:e2:8d:66:0b:c5:bd:64:c2:39:99:da:6f:18:a6:
         1b:7c:42:21:e8:9f:9a:85:7f:10:0b:c8:22:7b:ce:f7:2c:93:
         aa:cb:09:4e:d5:a6:eb:0d:1d:3c:99:a5:26:47:b6:2b:82:b4:
         43:d6:67:a7:71:ae:ce:c1:4f:fd:bd:b5:3d:f9:50:0f:c3:ef:
         00:4d:86:c1:b6:a0:a0:f4:86:ac:8f:66:f7:e4:01:30:bf:ca:
         6c:65:d5:b6:96:bb:fd:c2:15:8b:9b:b8:50:13:0f:3b:23:0c:
         9c:cb:53:09:e7:27:49:65:fc:f6:9e:b8:c5:94:0b:56:03:ad:
         85:63:19:09:fd:79:1f:c4:46:53:db:f3:f1:4e:0d:96:80:ba:
         1e:ae:7a:a6:3b:6c:67:7a:de:4f:6c:2c:37:6c:bb:ae:8b:51:
         5e:32:e2:cd:00:55:c1:c6:74:27:46:92:7d:16:e0:5d:7e:86:
         b1:ba:4b:93:30:c9:dd:4b:e3:1d:8a:10:97:81:f4:e6:ff:5d:
         7e:0a:c0:b0:9d:ad:65:00:cd:7d:30:62:16:97:19:1f:ff:b8:
         01:7f:61:4d:85:39:d5:ab:fb:fc:9f:eb:70:31:6f:a0:af:ac:
         07:92:0e:f4:42:ff:ed:9d:9d:4f:3d:ca:70:f2:13:3e:0c:67:
         1e:1b:31:84:66:00:16:7d:ac:7d:4a:70:cc:b3:4a:a3:40:58:
         92:c9:05:59:ed:ea:db:7a:dc:f6:85:92:86:cc:a8:bb:b1:9e:
         82:e5:a7:f5:0e:49:11:e9:43:4b:8f:2d:ef:e4:01:aa:9a:0e:
         c5:6d:67:4c:a4:2e:8f:31:43:34:21:97:93:7d:8b:01:71:16:
         eb:09:92:93:8e:10:6e:e3:ce:f7:b7:96:55:32:a5:1f:72:2a:
         db:bd:f0:da:29:e7:3f:11:a2:20:ab:fb:20:bb:4a:d2:b0:1c:
         b7:0f:8e:d2:28:ea:23:28:ab:c1:46:f3:2f:a7:f7:46:66:5b:
         a0:29:d4:5d:7f:a4:a5:38:5c:96:60:62:15:df:55:8a:83:5a:
         19:82:2d:1c:6e:e4:bf:52:79:c0:ca:a5:67:0e:01:1d:a1:7a:
         2f:17:35:2d:29:d0:2e:d3:69:9e:69:0f:45:8a:21:37:2a:4a:
         aa:df:c7:7a:5f:82:3e:e3:db:54:2a:78:af:4b:81:96:cb:67:
         e4:83:14:59:41:a2:40:7f
-----BEGIN CERTIFICATE-----
MIIFITCCAwmgAwIBAgIBGzANBgkqhkiG9w0BAQsFADCBhzELMAkGA1UEBhMCSU4x
DjAMBgNVBAgMBURlbGhpMQ4wDAYDVQQHDAVEZWxoaTEOMAwGA1UECgwFSUlJVEQx
CzAJBgNVBAsMAk5TMREwDwYDVQQDDAhBbnNodW1hbjEoMCYGCSqGSIb3DQEJARYZ
YW5zaHVtYW4xNDAyMUBpaWl0ZC5hYy5pbjAeFw0xNjExMjAxODI4MTJaFw0xOTA4
MTcxODI4MTJaMEgxCzAJBgNVBAYTAklOMQ4wDAYDVQQIDAVEZWxoaTEMMAoGA1UE
BwwDTkNSMQ4wDAYDVQQKDAVJSUlURDELMAkGA1UEAwwCTlMwggEiMA0GCSqGSIb3
DQEBAQUAA4IBDwAwggEKAoIBAQD18P4KikPB0FuS3ac+xV9qRJtAkjDBnmLWUylQ
9aJnzEr44/H3D7RKawd6mgkN5WbbgBHmZgjaX92Amkkxk/XdVfnjlh6z5iAXaotc
v4ejvYbO9lqoP/7T0jCyTXecdLlWHWSXpml0/jfGs46ckYRZlM6TbA7ZzvHziOD5
Pa7gKcvfuK5Z97qfA7cFNBZquchmW0ecRlUMKmx9oaqmIPuZpnvu4iOpoqzxDr6Y
K6eUsSHCCqZIR5drZN8dqUbNK7BUL3tLH2RDvxt/HaNLR+OxdmVUxNlfE2PZtXmv
bwSPArLig0/TkEXVO3nJKsIrFJgI/HjbmfavWJeAxgY54PeZAgMBAAGjgdUwgdIw
HQYDVR0OBBYEFGjwTbqivoIocT/toaJ8zYdlc6nyMB8GA1UdIwQYMBaAFGQEa1Ns
AWBXoEf6y5gCLW8BmhDDMAkGA1UdEwQCMAAwCwYDVR0PBAQDAgWgMEoGA1UdEQRD
MEGCC2V4YW1wbGUuY29tgg93d3cuZXhhbXBsZS5jb22CEG1haWwuZXhhbXBsZS5j
b22CD2Z0cC5leGFtcGxlLmNvbTAsBglghkgBhvhCAQ0EHxYdT3BlblNTTCBHZW5l
cmF0ZWQgQ2VydGlmaWNhdGUwDQYJKoZIhvcNAQELBQADggIBAJrLb+At+0/4mpCP
ljgKbLuRpeH8/hB/OXkjh9hLiv//H4AHZC0PIWtiCWHznR1Rzn7GYD7G0u82zcbi
jWYLxb1kwjmZ2m8Ypht8QiHon5qFfxALyCJ7zvcsk6rLCU7VpusNHTyZpSZHtiuC
tEPWZ6dxrs7BT/29tT35UA/D7wBNhsG2oKD0hqyPZvfkATC/ymxl1baWu/3CFYub
uFATDzsjDJzLUwnnJ0ll/PaeuMWUC1YDrYVjGQn9eR/ERlPb8/FODZaAuh6ueqY7
bGd63k9sLDdsu66LUV4y4s0AVcHGdCdGkn0W4F1+hrG6S5Mwyd1L4x2KEJeB9Ob/
XX4KwLCdrWUAzX0wYhaXGR//uAF/YU2FOdWr+/yf63Axb6CvrAeSDvRC/+2dnU89
ynDyEz4MZx4bMYRmABZ9rH1KcMyzSqNAWJLJBVnt6tt63PaFkobMqLuxnoLlp/UO
SRHpQ0uPLe/kAaqaDsVtZ0ykLo8xQzQhl5N9iwFxFusJkpOOEG7jzve3llUypR9y
Ktu98Nop5z8RoiCr+yC7StKwHLcPjtIo6iMoq8FG8y+n90ZmW6Ap1F1/pKU4XJZg
YhXfVYqDWhmCLRxu5L9SecDKpWcOAR2hei8XNS0p0C7TaZ5pD0WKITcqSqrfx3pf
gj7j21QqeK9LgZbLZ+SDFFlBokB/
-----END CERTIFICATE-----
