Certificate:
    Data:
        Version: 3 (0x2)
        Serial Number: 28 (0x1c)
    Signature Algorithm: sha256WithRSAEncryption
        Issuer: C=IN, ST=Delhi, L=Delhi, O=IIITD, OU=NS, CN=Anshuman/emailAddress=anshuman14021@iiitd.ac.in
        Validity
            Not Before: Nov 20 18:28:19 2016 GMT
            Not After : Aug 17 18:28:19 2019 GMT
        Subject: C=IN, ST=Delhi, L=NCR, O=IIITD, CN=NS
        Subject Public Key Info:
            Public Key Algorithm: rsaEncryption
                Public-Key: (2048 bit)
                Modulus:
                    00:c0:58:a8:64:f8:cf:79:02:01:64:cb:ee:ef:bf:
                    bc:09:97:0d:5f:9a:3d:48:2c:f5:a2:01:57:ed:98:
                    c3:4e:fa:eb:4e:d4:e3:fb:a1:23:9d:b3:1a:32:69:
                    33:45:a4:07:b4:ec:ec:12:11:d8:43:5f:17:5e:fd:
                    5c:27:2d:d1:76:16:cb:58:d4:1c:c5:24:bd:25:1a:
                    fb:35:e6:ee:38:82:1e:73:ab:cd:8b:0c:60:f8:6d:
                    32:71:17:ac:97:f9:7b:46:08:e7:7c:83:e3:ba:24:
                    88:ea:61:02:5c:f0:fc:fb:fd:01:7a:b4:20:49:c2:
                    22:b1:ca:12:03:71:a0:3c:02:d4:d5:03:1f:d2:b0:
                    0e:8f:2b:3f:5f:9e:da:4e:4b:62:ab:4c:2f:55:6c:
                    1b:5c:09:b9:28:03:e6:a3:d8:35:53:65:db:bb:83:
                    5c:e8:a2:21:a8:a7:e4:f9:8e:1e:d9:0c:3e:d9:ac:
                    7a:6e:de:4d:c0:f4:ae:fe:ed:6b:af:27:30:e3:ad:
                    98:2f:bd:9f:49:79:6d:5a:cf:4c:bf:35:9a:5c:d3:
                    73:fb:bc:1e:ff:07:4c:9a:f4:c4:e7:91:23:8a:ca:
                    4c:6a:c5:00:fe:3a:4f:0d:ac:54:08:5d:52:10:bf:
                    d7:25:fb:34:96:9a:59:0c:73:d0:74:5a:3f:61:68:
                    7e:a3
                Exponent: 65537 (0x10001)
        X509v3 extensions:
            X509v3 Subject Key Identifier: 
                E6:25:FE:04:9D:97:8C:C5:1A:B6:1C:38:C3:87:CC:FF:A0:D0:9F:2E
            X509v3 Authority Key Identifier: 
                keyid:64:04:6B:53:6C:01:60:57:A0:47:FA:CB:98:02:2D:6F:01:9A:10:C3

            X509v3 Basic Constraints: 
                CA:FALSE
            X509v3 Key Usage: 
                Digital Signature, Key Encipherment
            X509v3 Subject Alternative Name: 
                DNS:example.com, DNS:www.example.com, DNS:mail.example.com, DNS:ftp.example.com
            Netscape Comment: 
                OpenSSL Generated Certificate
    Signature Algorithm: sha256WithRSAEncryption
         05:3a:33:72:9d:af:56:7a:63:23:0a:21:0b:b4:ee:3e:13:ae:
         b9:f2:f6:0a:2e:a6:d1:70:7f:9a:29:92:57:9b:3b:3e:e2:3a:
         e1:2d:76:05:27:94:03:cc:1e:28:01:81:3f:89:65:5f:57:a1:
         df:69:eb:e5:ee:66:b1:85:03:b8:aa:0a:46:34:ad:b7:95:b3:
         d9:ca:bb:db:79:15:d5:db:f5:35:b8:c2:4d:c7:58:89:36:bb:
         b5:6f:ad:bb:f6:67:52:85:71:2c:3e:71:e7:b5:18:0f:49:e6:
         60:16:22:7c:8c:cb:f7:4d:05:29:48:86:ea:28:ac:32:09:1b:
         30:4e:4e:22:15:e6:c7:fb:ce:28:f0:69:4d:98:62:38:fb:27:
         8a:83:99:23:10:e5:83:e8:e1:e0:7e:7d:d4:e1:bd:65:19:de:
         78:6b:57:bd:c2:f9:04:31:05:90:98:51:7f:66:f9:1b:e4:d5:
         29:73:9a:dd:7d:a6:ff:61:19:64:09:ab:df:5b:34:77:0c:56:
         f8:ef:d0:7a:4b:77:7d:60:a0:d6:b8:8e:a6:bd:2a:7e:d9:24:
         e5:29:e9:bf:c5:a9:8f:d8:96:7e:af:4b:07:32:c1:98:7e:a7:
         33:f3:24:3e:fa:7e:1b:67:0f:95:46:5d:0f:1e:80:7d:34:a4:
         43:57:65:17:c6:45:cc:6f:41:5e:a6:2e:b4:4f:0a:09:5f:92:
         79:44:dd:f5:22:61:27:4f:75:da:f7:20:47:83:da:ff:f4:9a:
         e4:60:58:fd:c1:c2:cc:2f:fa:ad:b3:d2:fc:d1:1a:bf:65:ac:
         29:5e:d1:37:05:ce:65:51:4c:f5:c4:72:be:3d:90:e3:b9:21:
         82:48:c6:50:7a:b5:58:17:1b:70:9f:22:2f:1f:d0:57:a2:ff:
         74:45:50:64:57:8d:1c:a1:88:45:6a:2b:93:3a:52:fa:11:ee:
         d0:29:3c:15:24:8c:8f:64:c2:21:41:0e:76:2b:f9:14:d9:c1:
         38:e7:13:34:24:c6:77:ef:30:b1:37:ea:02:57:44:2f:1a:66:
         60:91:55:a0:00:48:83:94:e6:72:66:10:f2:bb:41:f0:7a:ac:
         b9:4c:eb:e6:8a:04:37:d3:a2:17:a8:bd:16:ae:c7:62:7e:94:
         74:a5:d2:1e:ef:c0:19:e0:7a:21:b4:8b:27:23:ec:f2:64:78:
         b6:c5:7b:fc:fd:bc:23:7f:ec:a8:97:3b:91:04:2d:d6:77:68:
         54:f7:02:d0:29:1a:d1:05:0a:ca:47:24:a6:52:1d:76:57:dc:
         b9:e4:af:6a:10:bf:83:f9:2d:68:4d:c9:c9:6f:57:0d:71:c2:
         9f:14:dc:6c:99:cb:50:2d
-----BEGIN CERTIFICATE-----
MIIFITCCAwmgAwIBAgIBHDANBgkqhkiG9w0BAQsFADCBhzELMAkGA1UEBhMCSU4x
DjAMBgNVBAgMBURlbGhpMQ4wDAYDVQQHDAVEZWxoaTEOMAwGA1UECgwFSUlJVEQx
CzAJBgNVBAsMAk5TMREwDwYDVQQDDAhBbnNodW1hbjEoMCYGCSqGSIb3DQEJARYZ
YW5zaHVtYW4xNDAyMUBpaWl0ZC5hYy5pbjAeFw0xNjExMjAxODI4MTlaFw0xOTA4
MTcxODI4MTlaMEgxCzAJBgNVBAYTAklOMQ4wDAYDVQQIDAVEZWxoaTEMMAoGA1UE
BwwDTkNSMQ4wDAYDVQQKDAVJSUlURDELMAkGA1UEAwwCTlMwggEiMA0GCSqGSIb3
DQEBAQUAA4IBDwAwggEKAoIBAQDAWKhk+M95AgFky+7vv7wJlw1fmj1ILPWiAVft
mMNO+utO1OP7oSOdsxoyaTNFpAe07OwSEdhDXxde/VwnLdF2FstY1BzFJL0lGvs1
5u44gh5zq82LDGD4bTJxF6yX+XtGCOd8g+O6JIjqYQJc8Pz7/QF6tCBJwiKxyhID
caA8AtTVAx/SsA6PKz9fntpOS2KrTC9VbBtcCbkoA+aj2DVTZdu7g1zooiGop+T5
jh7ZDD7ZrHpu3k3A9K7+7WuvJzDjrZgvvZ9JeW1az0y/NZpc03P7vB7/B0ya9MTn
kSOKykxqxQD+Ok8NrFQIXVIQv9cl+zSWmlkMc9B0Wj9haH6jAgMBAAGjgdUwgdIw
HQYDVR0OBBYEFOYl/gSdl4zFGrYcOMOHzP+g0J8uMB8GA1UdIwQYMBaAFGQEa1Ns
AWBXoEf6y5gCLW8BmhDDMAkGA1UdEwQCMAAwCwYDVR0PBAQDAgWgMEoGA1UdEQRD
MEGCC2V4YW1wbGUuY29tgg93d3cuZXhhbXBsZS5jb22CEG1haWwuZXhhbXBsZS5j
b22CD2Z0cC5leGFtcGxlLmNvbTAsBglghkgBhvhCAQ0EHxYdT3BlblNTTCBHZW5l
cmF0ZWQgQ2VydGlmaWNhdGUwDQYJKoZIhvcNAQELBQADggIBAAU6M3Kdr1Z6YyMK
IQu07j4Trrny9gouptFwf5opklebOz7iOuEtdgUnlAPMHigBgT+JZV9Xod9p6+Xu
ZrGFA7iqCkY0rbeVs9nKu9t5FdXb9TW4wk3HWIk2u7Vvrbv2Z1KFcSw+cee1GA9J
5mAWInyMy/dNBSlIhuoorDIJGzBOTiIV5sf7zijwaU2YYjj7J4qDmSMQ5YPo4eB+
fdThvWUZ3nhrV73C+QQxBZCYUX9m+Rvk1Slzmt19pv9hGWQJq99bNHcMVvjv0HpL
d31goNa4jqa9Kn7ZJOUp6b/FqY/Yln6vSwcywZh+pzPzJD76fhtnD5VGXQ8egH00
pENXZRfGRcxvQV6mLrRPCglfknlE3fUiYSdPddr3IEeD2v/0muRgWP3Bwswv+q2z
0vzRGr9lrCle0TcFzmVRTPXEcr49kOO5IYJIxlB6tVgXG3CfIi8f0Fei/3RFUGRX
jRyhiEVqK5M6UvoR7tApPBUkjI9kwiFBDnYr+RTZwTjnEzQkxnfvMLE36gJXRC8a
ZmCRVaAASIOU5nJmEPK7QfB6rLlM6+aKBDfToheovRaux2J+lHSl0h7vwBngeiG0
iycj7PJkeLbFe/z9vCN/7KiXO5EELdZ3aFT3AtApGtEFCspHJKZSHXZX3Lnkr2oQ
v4P5LWhNyclvVw1xwp8U3GyZy1At
-----END CERTIFICATE-----
