Certificate:
    Data:
        Version: 3 (0x2)
        Serial Number: 29 (0x1d)
    Signature Algorithm: sha256WithRSAEncryption
        Issuer: C=IN, ST=Delhi, L=Delhi, O=IIITD, OU=NS, CN=Anshuman/emailAddress=anshuman14021@iiitd.ac.in
        Validity
            Not Before: Nov 20 18:29:53 2016 GMT
            Not After : Aug 17 18:29:53 2019 GMT
        Subject: C=IN, ST=Delhi, L=NCR, O=IIITD, CN=NS
        Subject Public Key Info:
            Public Key Algorithm: rsaEncryption
                Public-Key: (2048 bit)
                Modulus:
                    00:de:f5:d3:cb:43:91:e4:bc:fe:0f:d3:7e:2b:b3:
                    73:98:6c:9e:82:ef:a0:8b:9c:79:c7:24:d5:89:bd:
                    71:f5:03:c9:72:2a:ea:1d:64:0d:5b:f1:e5:b5:47:
                    7c:b4:e1:91:cf:05:cd:0e:e0:05:13:5e:bc:9f:3c:
                    fb:67:25:27:3c:76:3a:c4:c7:52:4a:9f:f4:0b:b0:
                    ef:e1:21:49:6d:96:39:ae:7d:75:05:ff:5c:8a:32:
                    5b:30:0b:f3:74:e0:da:92:4d:c4:94:30:ac:2a:8d:
                    5f:00:5e:26:1e:15:5c:d0:ff:4e:34:b2:9b:d1:73:
                    60:ce:35:b5:54:38:3f:e1:80:a6:8c:3f:f4:90:fd:
                    70:8d:26:ca:a5:7c:65:d9:cc:82:c7:94:a6:96:03:
                    e6:a4:6c:20:5d:db:ef:39:86:ce:84:be:a3:6d:f1:
                    b0:36:14:db:8f:eb:b2:4a:23:eb:6b:35:3e:67:e4:
                    ff:c2:b2:85:da:63:05:83:16:b1:1c:bc:14:2b:f7:
                    46:be:a4:a0:49:d5:16:de:77:eb:23:49:3e:24:7a:
                    17:ed:9a:df:4e:d2:8f:97:1f:56:ed:86:a1:4e:8c:
                    88:f5:48:69:96:06:f7:0c:42:96:a5:23:cd:a2:8e:
                    81:2a:81:11:5c:22:3f:5d:93:94:0c:5e:5d:c5:99:
                    12:e7
                Exponent: 65537 (0x10001)
        X509v3 extensions:
            X509v3 Subject Key Identifier: 
                37:8E:EA:71:0A:28:59:FF:13:64:C9:4C:29:B6:F6:18:59:D7:31:1C
            X509v3 Authority Key Identifier: 
                keyid:64:04:6B:53:6C:01:60:57:A0:47:FA:CB:98:02:2D:6F:01:9A:10:C3

            X509v3 Basic Constraints: 
                CA:FALSE
            X509v3 Key Usage: 
                Digital Signature, Key Encipherment
            X509v3 Subject Alternative Name: 
                DNS:example.com, DNS:www.example.com, DNS:mail.example.com, DNS:ftp.example.com
            Netscape Comment: 
                OpenSSL Generated Certificate
    Signature Algorithm: sha256WithRSAEncryption
         1f:16:be:5d:1c:6b:4a:32:92:a4:3a:79:4f:37:8e:6b:3a:12:
         02:08:62:32:93:1d:05:19:63:e2:1f:e4:c7:24:25:0a:ea:41:
         be:18:e8:2b:59:1e:bd:cd:d7:34:42:af:9d:27:b4:d6:d9:4f:
         7f:df:43:8a:bf:02:fc:91:63:d0:00:a5:11:bd:07:b4:30:d8:
         e9:bb:3b:4f:d6:53:27:86:61:40:b9:ca:83:2e:3a:ba:77:8c:
         2a:1f:15:3c:dd:f7:55:12:1e:88:9a:71:01:da:38:87:75:0e:
         ef:78:ef:f7:11:65:c4:ee:d9:fd:d7:82:79:c5:fa:32:10:78:
         f7:6e:d9:f5:4d:41:2f:69:36:7b:c2:15:be:84:a5:e6:47:b2:
         05:52:d8:21:d8:02:33:d2:f7:80:3d:6f:42:c6:57:19:87:95:
         fc:14:66:e9:98:f2:73:52:a4:aa:63:dc:ca:f8:6b:96:f0:7a:
         51:82:92:9d:8e:5a:95:e5:46:67:ae:b1:6d:9d:10:1e:18:c8:
         3c:70:9b:83:78:9b:65:79:43:5e:3d:a0:53:a5:11:6c:9a:af:
         96:b5:2b:f4:7a:ea:76:8d:4a:e7:08:c1:ee:51:e7:7b:a7:b1:
         54:d8:9a:36:38:74:4c:c5:40:be:87:1e:c2:48:10:f8:bc:80:
         f6:55:d0:f2:1a:eb:8e:fe:d9:c8:20:17:19:3c:82:44:c0:38:
         59:d2:00:09:48:31:36:cf:cd:0a:f5:b1:1e:f3:4a:9b:45:32:
         60:6d:7f:4c:36:8b:5c:c3:29:ca:74:2e:7a:e9:6a:d7:9e:2e:
         cf:86:4c:2f:fa:1f:b4:b6:0f:5a:38:74:96:fa:ae:21:ad:b9:
         ef:77:5b:aa:8b:dc:1b:c4:42:11:53:36:19:2a:16:06:f0:5b:
         8c:5b:d2:89:54:07:32:bc:6c:1a:3d:49:1f:e7:de:0d:66:e2:
         cf:80:80:7c:05:5e:cb:a1:55:e7:ef:62:ae:99:da:9e:e7:94:
         9d:c3:61:9e:72:6b:a0:2b:0a:d1:bc:2a:ca:1d:ce:4f:2c:17:
         6f:0f:78:cc:04:88:c6:61:8e:74:f3:38:0e:5a:12:68:f1:d7:
         64:e0:70:64:03:d9:2a:16:c5:74:3c:d7:82:21:f0:52:08:48:
         df:4b:52:4d:98:69:0c:70:1e:69:90:4d:53:4d:c0:64:18:bd:
         2c:57:3b:c9:1e:c4:9e:d7:8e:94:1b:ad:9e:9e:1c:03:7b:61:
         7e:6f:d7:dc:e9:ad:9a:48:00:72:c5:78:ab:a4:78:db:87:ea:
         e6:96:86:70:b9:ea:d6:6e:bb:b6:20:d8:76:36:33:17:2f:d2:
         a6:61:29:23:5a:3d:c6:12
-----BEGIN CERTIFICATE-----
MIIFITCCAwmgAwIBAgIBHTANBgkqhkiG9w0BAQsFADCBhzELMAkGA1UEBhMCSU4x
DjAMBgNVBAgMBURlbGhpMQ4wDAYDVQQHDAVEZWxoaTEOMAwGA1UECgwFSUlJVEQx
CzAJBgNVBAsMAk5TMREwDwYDVQQDDAhBbnNodW1hbjEoMCYGCSqGSIb3DQEJARYZ
YW5zaHVtYW4xNDAyMUBpaWl0ZC5hYy5pbjAeFw0xNjExMjAxODI5NTNaFw0xOTA4
MTcxODI5NTNaMEgxCzAJBgNVBAYTAklOMQ4wDAYDVQQIDAVEZWxoaTEMMAoGA1UE
BwwDTkNSMQ4wDAYDVQQKDAVJSUlURDELMAkGA1UEAwwCTlMwggEiMA0GCSqGSIb3
DQEBAQUAA4IBDwAwggEKAoIBAQDe9dPLQ5HkvP4P034rs3OYbJ6C76CLnHnHJNWJ
vXH1A8lyKuodZA1b8eW1R3y04ZHPBc0O4AUTXryfPPtnJSc8djrEx1JKn/QLsO/h
IUltljmufXUF/1yKMlswC/N04NqSTcSUMKwqjV8AXiYeFVzQ/040spvRc2DONbVU
OD/hgKaMP/SQ/XCNJsqlfGXZzILHlKaWA+akbCBd2+85hs6EvqNt8bA2FNuP67JK
I+trNT5n5P/CsoXaYwWDFrEcvBQr90a+pKBJ1Rbed+sjST4kehftmt9O0o+XH1bt
hqFOjIj1SGmWBvcMQpalI82ijoEqgRFcIj9dk5QMXl3FmRLnAgMBAAGjgdUwgdIw
HQYDVR0OBBYEFDeO6nEKKFn/E2TJTCm29hhZ1zEcMB8GA1UdIwQYMBaAFGQEa1Ns
AWBXoEf6y5gCLW8BmhDDMAkGA1UdEwQCMAAwCwYDVR0PBAQDAgWgMEoGA1UdEQRD
MEGCC2V4YW1wbGUuY29tgg93d3cuZXhhbXBsZS5jb22CEG1haWwuZXhhbXBsZS5j
b22CD2Z0cC5leGFtcGxlLmNvbTAsBglghkgBhvhCAQ0EHxYdT3BlblNTTCBHZW5l
cmF0ZWQgQ2VydGlmaWNhdGUwDQYJKoZIhvcNAQELBQADggIBAB8Wvl0ca0oykqQ6
eU83jms6EgIIYjKTHQUZY+If5MckJQrqQb4Y6CtZHr3N1zRCr50ntNbZT3/fQ4q/
AvyRY9AApRG9B7Qw2Om7O0/WUyeGYUC5yoMuOrp3jCofFTzd91USHoiacQHaOId1
Du947/cRZcTu2f3XgnnF+jIQePdu2fVNQS9pNnvCFb6EpeZHsgVS2CHYAjPS94A9
b0LGVxmHlfwUZumY8nNSpKpj3Mr4a5bwelGCkp2OWpXlRmeusW2dEB4YyDxwm4N4
m2V5Q149oFOlEWyar5a1K/R66naNSucIwe5R53unsVTYmjY4dEzFQL6HHsJIEPi8
gPZV0PIa647+2cggFxk8gkTAOFnSAAlIMTbPzQr1sR7zSptFMmBtf0w2i1zDKcp0
LnrpateeLs+GTC/6H7S2D1o4dJb6riGtue93W6qL3BvEQhFTNhkqFgbwW4xb0olU
BzK8bBo9SR/n3g1m4s+AgHwFXsuhVefvYq6Z2p7nlJ3DYZ5ya6ArCtG8Ksodzk8s
F28PeMwEiMZhjnTzOA5aEmjx12TgcGQD2SoWxXQ814Ih8FIISN9LUk2YaQxwHmmQ
TVNNwGQYvSxXO8kexJ7XjpQbrZ6eHAN7YX5v19zprZpIAHLFeKukeNuH6uaWhnC5
6tZuu7Yg2HY2Mxcv0qZhKSNaPcYS
-----END CERTIFICATE-----
