Certificate:
    Data:
        Version: 3 (0x2)
        Serial Number: 30 (0x1e)
    Signature Algorithm: sha256WithRSAEncryption
        Issuer: C=IN, ST=Delhi, L=Delhi, O=IIITD, OU=NS, CN=Anshuman/emailAddress=anshuman14021@iiitd.ac.in
        Validity
            Not Before: Nov 20 18:33:45 2016 GMT
            Not After : Aug 17 18:33:45 2019 GMT
        Subject: C=IN, ST=Delhi, L=NCR, O=IIITD, CN=NS
        Subject Public Key Info:
            Public Key Algorithm: rsaEncryption
                Public-Key: (2048 bit)
                Modulus:
                    00:d4:2d:8a:1e:33:dd:d9:c7:e6:88:df:75:14:ac:
                    f6:b0:2f:dd:83:04:04:b9:7a:09:90:87:0a:9d:16:
                    69:dc:ea:d2:b4:46:c0:b8:52:65:8f:ad:56:bb:19:
                    f0:f4:b0:b1:3a:b6:34:e6:cc:3f:c1:60:04:f0:f7:
                    44:dc:28:ce:73:8b:51:6c:55:dc:09:ea:2b:d0:e4:
                    69:2c:24:80:7b:26:14:a1:84:a2:55:2c:19:44:14:
                    b9:ba:a7:db:e9:f9:2a:a1:16:b3:6e:6a:14:68:17:
                    1b:d2:0b:47:e6:2d:42:74:39:33:4f:22:92:25:da:
                    73:fe:40:a9:c4:80:2b:98:c3:f5:cf:9f:24:21:da:
                    f0:d9:68:d4:1b:f2:00:ff:1b:07:e0:4c:4a:a9:aa:
                    c7:4d:9e:ea:a4:64:90:61:67:71:73:73:a7:49:62:
                    d8:06:a7:5b:5a:e8:74:e6:9d:3a:6d:18:b0:6f:19:
                    ba:77:c4:5f:e2:dd:cf:3f:96:2e:25:2f:8d:5d:ab:
                    96:e0:3b:97:d3:26:49:bd:36:78:13:f2:03:c6:28:
                    4b:22:9d:5a:45:a0:a0:39:40:dc:93:0b:5d:45:50:
                    35:70:49:fa:39:7d:c2:a2:7c:84:1a:98:e9:41:9c:
                    87:1d:91:e4:25:dc:3d:1f:75:5b:02:f8:27:23:7a:
                    da:3f
                Exponent: 65537 (0x10001)
        X509v3 extensions:
            X509v3 Subject Key Identifier: 
                F7:1B:01:E9:0E:F2:D4:50:C6:09:D7:57:FC:5B:F4:23:B0:DB:49:24
            X509v3 Authority Key Identifier: 
                keyid:64:04:6B:53:6C:01:60:57:A0:47:FA:CB:98:02:2D:6F:01:9A:10:C3

            X509v3 Basic Constraints: 
                CA:FALSE
            X509v3 Key Usage: 
                Digital Signature, Key Encipherment
            X509v3 Subject Alternative Name: 
                DNS:example.com, DNS:www.example.com, DNS:mail.example.com, DNS:ftp.example.com
            Netscape Comment: 
                OpenSSL Generated Certificate
    Signature Algorithm: sha256WithRSAEncryption
         b6:df:76:2d:8c:10:06:96:5c:6c:b4:a4:b7:79:39:63:43:d8:
         75:2c:34:e6:76:31:7b:21:78:90:0a:a3:0f:42:98:00:3c:05:
         3e:ba:ca:8f:36:e8:0d:7b:8c:4a:a4:8d:f2:e6:62:cc:44:72:
         e6:9e:53:ab:82:0d:f5:57:94:06:e9:41:80:0e:fa:4d:c0:5b:
         ca:7e:ae:d3:f9:05:83:0b:be:b8:7b:a3:91:00:3a:8e:da:8c:
         d9:44:2e:fb:86:23:6c:0c:ef:0a:45:84:c1:35:00:c2:05:07:
         18:82:6b:dc:3a:ca:37:21:bc:6a:81:e6:2a:0e:7a:2d:0d:57:
         4c:c5:e1:9f:08:e5:20:56:a4:fc:96:65:60:5f:b2:c2:d1:12:
         e9:62:b2:e7:9b:83:d7:12:44:3e:e3:e9:e2:ef:c0:96:50:97:
         57:c6:58:7c:43:d3:bc:f2:3c:5a:05:c8:1d:2f:fd:09:bb:33:
         07:a5:b6:d0:23:10:b7:13:25:67:58:e8:39:a5:f8:a5:1d:9f:
         a4:02:ea:9e:49:14:f6:74:09:05:18:97:2a:94:f7:00:a5:38:
         b4:d6:a0:1e:34:54:6e:e6:ce:30:3f:69:72:35:d1:03:ba:77:
         b5:f0:d4:7a:e2:35:fb:9b:8d:bc:9b:70:a0:4e:b7:33:d0:f0:
         37:4b:61:c6:2d:0e:d3:5c:b1:45:80:54:74:5d:e1:89:4a:ad:
         e9:f4:ab:21:54:a8:54:e4:74:c2:9e:ce:ab:d9:c1:7d:cb:6d:
         d1:68:35:4a:18:32:a3:ae:5d:ab:e9:45:db:22:86:85:4f:e7:
         2a:96:5b:41:dc:32:0d:06:02:fd:c5:1a:30:01:2a:da:af:16:
         d5:db:8f:fa:85:48:30:67:4d:e7:9e:87:7b:15:bb:d7:41:93:
         48:d0:ee:6d:cd:c5:42:e2:ac:12:73:de:3e:f2:8d:f5:d1:28:
         33:2b:fb:39:24:5c:42:ce:89:7a:0b:53:2d:73:42:8d:1f:63:
         31:2e:45:23:ee:76:c6:c5:ee:c5:e8:53:66:f1:f9:59:cb:16:
         61:99:6b:20:40:e1:67:cc:da:76:58:d9:92:03:bc:e7:d0:79:
         0d:93:e1:97:3a:58:92:7c:e1:8b:2f:84:6e:1f:91:34:c5:7c:
         2b:8d:3c:6f:0d:4a:0e:24:fd:d8:f9:ed:49:91:fb:ed:ba:6b:
         79:5b:64:b2:c4:0f:35:62:16:3f:3f:7b:81:fc:1b:1a:97:8f:
         fb:01:82:de:44:2d:6b:3f:40:7b:5d:02:9c:3d:cf:e7:ef:87:
         19:ac:34:d8:62:7a:80:68:14:6b:94:65:bf:3a:a8:0f:07:54:
         fa:8c:bf:3a:07:3d:70:41
-----BEGIN CERTIFICATE-----
MIIFITCCAwmgAwIBAgIBHjANBgkqhkiG9w0BAQsFADCBhzELMAkGA1UEBhMCSU4x
DjAMBgNVBAgMBURlbGhpMQ4wDAYDVQQHDAVEZWxoaTEOMAwGA1UECgwFSUlJVEQx
CzAJBgNVBAsMAk5TMREwDwYDVQQDDAhBbnNodW1hbjEoMCYGCSqGSIb3DQEJARYZ
YW5zaHVtYW4xNDAyMUBpaWl0ZC5hYy5pbjAeFw0xNjExMjAxODMzNDVaFw0xOTA4
MTcxODMzNDVaMEgxCzAJBgNVBAYTAklOMQ4wDAYDVQQIDAVEZWxoaTEMMAoGA1UE
BwwDTkNSMQ4wDAYDVQQKDAVJSUlURDELMAkGA1UEAwwCTlMwggEiMA0GCSqGSIb3
DQEBAQUAA4IBDwAwggEKAoIBAQDULYoeM93Zx+aI33UUrPawL92DBAS5egmQhwqd
Fmnc6tK0RsC4UmWPrVa7GfD0sLE6tjTmzD/BYATw90TcKM5zi1FsVdwJ6ivQ5Gks
JIB7JhShhKJVLBlEFLm6p9vp+SqhFrNuahRoFxvSC0fmLUJ0OTNPIpIl2nP+QKnE
gCuYw/XPnyQh2vDZaNQb8gD/GwfgTEqpqsdNnuqkZJBhZ3Fzc6dJYtgGp1ta6HTm
nTptGLBvGbp3xF/i3c8/li4lL41dq5bgO5fTJkm9NngT8gPGKEsinVpFoKA5QNyT
C11FUDVwSfo5fcKifIQamOlBnIcdkeQl3D0fdVsC+Ccjeto/AgMBAAGjgdUwgdIw
HQYDVR0OBBYEFPcbAekO8tRQxgnXV/xb9COw20kkMB8GA1UdIwQYMBaAFGQEa1Ns
AWBXoEf6y5gCLW8BmhDDMAkGA1UdEwQCMAAwCwYDVR0PBAQDAgWgMEoGA1UdEQRD
MEGCC2V4YW1wbGUuY29tgg93d3cuZXhhbXBsZS5jb22CEG1haWwuZXhhbXBsZS5j
b22CD2Z0cC5leGFtcGxlLmNvbTAsBglghkgBhvhCAQ0EHxYdT3BlblNTTCBHZW5l
cmF0ZWQgQ2VydGlmaWNhdGUwDQYJKoZIhvcNAQELBQADggIBALbfdi2MEAaWXGy0
pLd5OWND2HUsNOZ2MXsheJAKow9CmAA8BT66yo826A17jEqkjfLmYsxEcuaeU6uC
DfVXlAbpQYAO+k3AW8p+rtP5BYMLvrh7o5EAOo7ajNlELvuGI2wM7wpFhME1AMIF
BxiCa9w6yjchvGqB5ioOei0NV0zF4Z8I5SBWpPyWZWBfssLREulisuebg9cSRD7j
6eLvwJZQl1fGWHxD07zyPFoFyB0v/Qm7MwelttAjELcTJWdY6Dml+KUdn6QC6p5J
FPZ0CQUYlyqU9wClOLTWoB40VG7mzjA/aXI10QO6d7Xw1HriNfubjbybcKBOtzPQ
8DdLYcYtDtNcsUWAVHRd4YlKren0qyFUqFTkdMKezqvZwX3LbdFoNUoYMqOuXavp
RdsihoVP5yqWW0HcMg0GAv3FGjABKtqvFtXbj/qFSDBnTeeeh3sVu9dBk0jQ7m3N
xULirBJz3j7yjfXRKDMr+zkkXELOiXoLUy1zQo0fYzEuRSPudsbF7sXoU2bx+VnL
FmGZayBA4WfM2nZY2ZIDvOfQeQ2T4Zc6WJJ84YsvhG4fkTTFfCuNPG8NSg4k/dj5
7UmR++26a3lbZLLEDzViFj8/e4H8GxqXj/sBgt5ELWs/QHtdApw9z+fvhxmsNNhi
eoBoFGuUZb86qA8HVPqMvzoHPXBB
-----END CERTIFICATE-----
