Certificate:
    Data:
        Version: 3 (0x2)
        Serial Number: 31 (0x1f)
    Signature Algorithm: sha256WithRSAEncryption
        Issuer: C=IN, ST=Delhi, L=Delhi, O=IIITD, OU=NS, CN=Anshuman/emailAddress=anshuman14021@iiitd.ac.in
        Validity
            Not Before: Nov 20 18:36:10 2016 GMT
            Not After : Aug 17 18:36:10 2019 GMT
        Subject: C=IN, ST=Delhi, L=NCR, O=IIITD, CN=NS
        Subject Public Key Info:
            Public Key Algorithm: rsaEncryption
                Public-Key: (2048 bit)
                Modulus:
                    00:c4:a3:3a:8e:96:43:cb:ed:eb:14:da:5e:6e:ab:
                    25:19:5e:09:df:e4:28:bd:5e:b0:e2:a9:c8:d2:1f:
                    23:df:61:60:7d:ab:33:e8:2f:5d:51:0c:c4:59:96:
                    73:cc:f5:0c:9c:17:ea:91:ed:de:b6:a4:6c:7e:24:
                    11:06:2e:dc:11:a4:a6:36:01:bf:c8:cf:fc:9e:28:
                    aa:01:81:08:2c:76:7c:4e:a6:9b:d8:98:96:47:66:
                    a5:b2:79:93:16:13:55:d5:a4:d6:5e:12:e3:5c:cc:
                    fc:59:8d:8a:e2:e3:71:8f:dc:29:29:35:51:ac:99:
                    9c:f0:77:e5:9d:58:e9:6e:83:b5:79:e1:fc:44:06:
                    26:ce:0c:b1:a8:55:b7:c6:aa:60:27:5a:b9:87:12:
                    64:34:c3:30:32:ea:77:af:75:f0:19:12:2b:7c:60:
                    66:51:bc:3b:d1:31:16:50:63:aa:b9:e4:fe:d4:e6:
                    a9:65:4f:b6:47:53:87:54:4f:8e:d5:15:fa:59:75:
                    9d:57:4a:57:a4:2d:b7:47:be:9c:99:7b:03:7e:b2:
                    97:8d:c5:3d:c2:08:65:d1:db:f2:61:4d:79:7f:85:
                    87:36:5b:38:c8:4b:26:c8:02:db:cd:9b:90:52:82:
                    63:ea:b1:f7:37:3e:4d:be:93:e4:a7:6c:c5:c6:4c:
                    7c:d9
                Exponent: 65537 (0x10001)
        X509v3 extensions:
            X509v3 Subject Key Identifier: 
                91:88:8D:17:99:6C:BE:65:07:D6:58:80:BA:75:95:2A:40:DF:63:F7
            X509v3 Authority Key Identifier: 
                keyid:64:04:6B:53:6C:01:60:57:A0:47:FA:CB:98:02:2D:6F:01:9A:10:C3

            X509v3 Basic Constraints: 
                CA:FALSE
            X509v3 Key Usage: 
                Digital Signature, Key Encipherment
            X509v3 Subject Alternative Name: 
                DNS:example.com, DNS:www.example.com, DNS:mail.example.com, DNS:ftp.example.com
            Netscape Comment: 
                OpenSSL Generated Certificate
    Signature Algorithm: sha256WithRSAEncryption
         01:f3:e3:9c:48:05:21:94:4c:56:f8:66:73:20:95:d5:ad:1c:
         d1:cb:c5:1e:08:30:1a:dd:21:2b:46:b0:09:ea:12:b5:87:56:
         d8:fc:70:66:61:ef:b7:da:f0:7c:e3:69:e0:9f:91:ae:7d:68:
         13:99:40:3d:31:07:a7:f3:97:9c:14:5a:2e:be:31:cd:31:40:
         11:3a:73:f4:f5:fb:b4:9a:a3:07:5f:be:77:9a:4c:78:e8:5a:
         9d:af:b2:bb:d9:34:05:67:89:5f:55:4c:f4:5f:4a:0b:ff:22:
         a8:39:89:8c:81:c0:96:fb:8c:47:49:f9:0d:77:b8:1e:ae:74:
         ab:2e:82:b0:90:14:fe:11:01:61:16:b8:d1:87:5f:64:47:c5:
         1c:c7:06:4b:b3:5d:17:44:00:7c:23:a4:0c:93:13:40:c3:fc:
         1f:3c:a3:06:ed:68:89:5f:5d:4e:74:3a:cb:b0:9c:45:07:ad:
         53:3d:eb:34:5c:a9:f5:a1:af:08:2f:2b:7d:fb:b4:4a:9c:fe:
         00:e8:93:dc:96:81:4a:a9:1d:73:4d:47:ab:39:d8:1e:41:d8:
         82:30:37:67:da:36:74:80:19:93:e7:12:00:73:b0:d1:fc:4a:
         e6:77:b9:78:85:d3:db:da:74:ac:2f:19:46:b7:f3:98:3d:98:
         d3:76:b3:21:cc:cc:95:11:ab:98:93:c5:c9:c0:c0:ce:20:67:
         7b:36:17:d8:d3:c0:84:bd:00:43:75:c9:5a:30:60:8f:fd:af:
         cf:89:ec:d7:14:0f:c4:2e:55:8b:b6:ce:39:58:aa:73:e9:18:
         93:2f:d0:6c:96:07:b9:2d:40:17:eb:f4:e9:6d:3a:6d:38:ba:
         4b:14:4d:ac:0a:51:1c:6a:9f:1d:93:e6:f7:a0:6f:70:62:9a:
         87:ac:89:fc:26:fa:74:90:ba:a4:09:87:15:a9:49:91:cb:ca:
         7e:05:29:7b:12:92:35:2c:85:fd:78:4f:e9:72:74:fe:5d:9c:
         d6:12:41:7a:6c:6a:09:a5:d9:7a:92:01:ef:f7:2f:46:dc:79:
         47:9b:97:6f:1a:40:0d:ba:8b:e4:85:8b:3f:73:4e:5f:f5:ad:
         de:52:5a:85:62:1a:a7:d1:fe:73:71:75:14:33:d8:23:00:23:
         dd:0a:2c:c9:d9:46:e0:ff:f6:c2:82:e3:09:9d:9c:1d:ce:11:
         a8:73:f1:6f:5b:76:df:5f:7d:c3:08:b9:8e:25:38:12:d4:e1:
         1b:69:92:4d:ac:5f:ba:77:04:6c:90:66:54:f4:7e:3d:20:6f:
         e2:51:98:ae:f3:27:c0:13:ea:4d:9b:bf:85:e0:64:b5:ec:5b:
         73:06:a8:e1:74:cc:a9:ff
-----BEGIN CERTIFICATE-----
MIIFITCCAwmgAwIBAgIBHzANBgkqhkiG9w0BAQsFADCBhzELMAkGA1UEBhMCSU4x
DjAMBgNVBAgMBURlbGhpMQ4wDAYDVQQHDAVEZWxoaTEOMAwGA1UECgwFSUlJVEQx
CzAJBgNVBAsMAk5TMREwDwYDVQQDDAhBbnNodW1hbjEoMCYGCSqGSIb3DQEJARYZ
YW5zaHVtYW4xNDAyMUBpaWl0ZC5hYy5pbjAeFw0xNjExMjAxODM2MTBaFw0xOTA4
MTcxODM2MTBaMEgxCzAJBgNVBAYTAklOMQ4wDAYDVQQIDAVEZWxoaTEMMAoGA1UE
BwwDTkNSMQ4wDAYDVQQKDAVJSUlURDELMAkGA1UEAwwCTlMwggEiMA0GCSqGSIb3
DQEBAQUAA4IBDwAwggEKAoIBAQDEozqOlkPL7esU2l5uqyUZXgnf5Ci9XrDiqcjS
HyPfYWB9qzPoL11RDMRZlnPM9QycF+qR7d62pGx+JBEGLtwRpKY2Ab/Iz/yeKKoB
gQgsdnxOppvYmJZHZqWyeZMWE1XVpNZeEuNczPxZjYri43GP3CkpNVGsmZzwd+Wd
WOlug7V54fxEBibODLGoVbfGqmAnWrmHEmQ0wzAy6nevdfAZEit8YGZRvDvRMRZQ
Y6q55P7U5qllT7ZHU4dUT47VFfpZdZ1XSlekLbdHvpyZewN+speNxT3CCGXR2/Jh
TXl/hYc2WzjISybIAtvNm5BSgmPqsfc3Pk2+k+SnbMXGTHzZAgMBAAGjgdUwgdIw
HQYDVR0OBBYEFJGIjReZbL5lB9ZYgLp1lSpA32P3MB8GA1UdIwQYMBaAFGQEa1Ns
AWBXoEf6y5gCLW8BmhDDMAkGA1UdEwQCMAAwCwYDVR0PBAQDAgWgMEoGA1UdEQRD
MEGCC2V4YW1wbGUuY29tgg93d3cuZXhhbXBsZS5jb22CEG1haWwuZXhhbXBsZS5j
b22CD2Z0cC5leGFtcGxlLmNvbTAsBglghkgBhvhCAQ0EHxYdT3BlblNTTCBHZW5l
cmF0ZWQgQ2VydGlmaWNhdGUwDQYJKoZIhvcNAQELBQADggIBAAHz45xIBSGUTFb4
ZnMgldWtHNHLxR4IMBrdIStGsAnqErWHVtj8cGZh77fa8HzjaeCfka59aBOZQD0x
B6fzl5wUWi6+Mc0xQBE6c/T1+7SaowdfvneaTHjoWp2vsrvZNAVniV9VTPRfSgv/
Iqg5iYyBwJb7jEdJ+Q13uB6udKsugrCQFP4RAWEWuNGHX2RHxRzHBkuzXRdEAHwj
pAyTE0DD/B88owbtaIlfXU50OsuwnEUHrVM96zRcqfWhrwgvK337tEqc/gDok9yW
gUqpHXNNR6s52B5B2IIwN2faNnSAGZPnEgBzsNH8SuZ3uXiF09vadKwvGUa385g9
mNN2syHMzJURq5iTxcnAwM4gZ3s2F9jTwIS9AEN1yVowYI/9r8+J7NcUD8QuVYu2
zjlYqnPpGJMv0GyWB7ktQBfr9OltOm04uksUTawKURxqnx2T5vegb3Bimoesifwm
+nSQuqQJhxWpSZHLyn4FKXsSkjUshf14T+lydP5dnNYSQXpsagml2XqSAe/3L0bc
eUebl28aQA26i+SFiz9zTl/1rd5SWoViGqfR/nNxdRQz2CMAI90KLMnZRuD/9sKC
4wmdnB3OEahz8W9bdt9ffcMIuY4lOBLU4Rtpkk2sX7p3BGyQZlT0fj0gb+JRmK7z
J8AT6k2bv4XgZLXsW3MGqOF0zKn/
-----END CERTIFICATE-----
