Certificate:
    Data:
        Version: 3 (0x2)
        Serial Number: 32 (0x20)
    Signature Algorithm: sha256WithRSAEncryption
        Issuer: C=IN, ST=Delhi, L=Delhi, O=IIITD, OU=NS, CN=Anshuman/emailAddress=anshuman14021@iiitd.ac.in
        Validity
            Not Before: Nov 20 18:38:40 2016 GMT
            Not After : Aug 17 18:38:40 2019 GMT
        Subject: C=IN, ST=Delhi, L=NCR, O=IIITD, CN=NS
        Subject Public Key Info:
            Public Key Algorithm: rsaEncryption
                Public-Key: (2048 bit)
                Modulus:
                    00:a8:60:e9:5c:4e:fd:83:07:ae:11:e0:db:85:67:
                    94:0b:dc:90:f8:6f:e7:75:d6:60:d9:24:89:b3:a2:
                    15:99:c4:35:af:3b:ee:22:30:ed:36:a1:70:a8:95:
                    52:d8:bc:70:a8:d9:ff:2f:be:93:a4:e9:a2:08:b4:
                    fa:81:87:af:2c:47:e1:b0:88:5d:cd:fd:7c:da:de:
                    a1:28:11:9d:6e:2e:c0:e7:ae:1c:2c:f1:9a:7f:27:
                    8e:af:74:a1:60:8d:d9:27:5a:56:90:ff:1d:47:69:
                    4c:c8:6c:40:8a:44:37:a3:fa:d4:3c:41:f7:8c:75:
                    66:5a:4a:97:b1:30:08:0a:52:b0:8a:31:b9:60:da:
                    88:4d:6c:c9:cd:fc:a0:76:83:4b:8b:9f:37:2f:dc:
                    64:9f:f7:97:f2:79:9f:bf:2b:93:3f:b8:58:a5:ca:
                    b9:9d:63:44:01:6d:9c:49:6e:08:a5:93:47:02:1d:
                    50:c3:be:42:60:e7:dc:61:90:8d:3c:0b:0b:7b:6c:
                    d5:1a:8d:36:f2:ad:56:d6:0a:69:81:71:33:2d:44:
                    eb:71:45:56:37:e1:49:bb:2e:36:b5:70:21:f1:15:
                    61:39:c2:11:65:42:ce:09:e1:a6:4f:4a:d3:17:7b:
                    3e:af:f1:0d:ab:22:91:5a:85:99:ad:40:51:26:6a:
                    82:a3
                Exponent: 65537 (0x10001)
        X509v3 extensions:
            X509v3 Subject Key Identifier: 
                96:2D:42:4F:7F:60:C1:93:31:8A:23:5F:55:04:6A:48:90:89:5E:40
            X509v3 Authority Key Identifier: 
                keyid:64:04:6B:53:6C:01:60:57:A0:47:FA:CB:98:02:2D:6F:01:9A:10:C3

            X509v3 Basic Constraints: 
                CA:FALSE
            X509v3 Key Usage: 
                Digital Signature, Key Encipherment
            X509v3 Subject Alternative Name: 
                DNS:example.com, DNS:www.example.com, DNS:mail.example.com, DNS:ftp.example.com
            Netscape Comment: 
                OpenSSL Generated Certificate
    Signature Algorithm: sha256WithRSAEncryption
         b7:07:c8:fd:ad:03:8f:19:38:61:67:cc:de:13:e3:5b:1c:ea:
         4e:61:6e:d6:68:19:57:0c:86:f2:c7:73:e6:91:a0:49:15:66:
         60:08:3d:2e:ee:89:b0:db:38:ff:84:a2:28:46:c8:2b:b0:9a:
         21:36:a8:54:ac:d8:09:ea:bc:2c:29:ec:a9:af:72:e7:fe:a2:
         d6:1e:ec:73:a8:e2:79:37:76:da:6b:67:23:ca:7a:8e:21:85:
         95:c3:e2:a1:99:23:fd:96:9e:16:ac:5e:5a:1c:97:a0:b8:99:
         a5:7b:0f:20:2b:ff:e7:18:b7:b0:33:90:24:b7:1d:28:bf:24:
         6c:1d:a4:c8:ce:7e:54:87:98:39:93:1c:79:0b:52:f5:e3:04:
         9f:ba:07:da:8a:82:a4:d3:38:12:6d:6a:93:16:39:83:e8:83:
         49:79:be:f4:64:e6:9d:0b:7b:3f:d8:71:4c:21:8a:08:ab:7a:
         af:59:6a:c8:39:a1:65:e5:ce:d3:45:aa:d1:c1:30:6d:28:f8:
         cc:13:fe:8b:67:37:9e:e1:6b:e0:ab:92:e5:62:fa:ae:5a:06:
         9d:10:fb:af:f8:6f:f7:ba:cb:e6:c8:f1:cf:2e:16:bb:da:2e:
         2d:1d:fa:23:ba:64:58:ec:0f:d8:3d:eb:52:0a:54:b4:46:f8:
         01:ca:e4:47:c7:cb:a6:3a:4e:3a:2b:c0:35:b2:c2:b3:19:25:
         91:66:54:77:80:40:14:ea:71:83:42:a5:e0:f7:4c:24:07:79:
         c1:eb:9c:1d:45:ac:70:93:17:b3:da:88:c8:8e:1e:a0:01:00:
         ca:c3:ce:04:8c:cc:4b:ac:9a:0f:2f:f2:7e:ce:08:de:4f:b2:
         97:d7:03:63:c2:9b:e1:50:3c:80:23:ff:10:ae:ba:ac:ff:52:
         31:4a:5f:bb:9b:25:bb:1f:3b:d2:cd:ce:f4:b3:bf:b2:8d:6b:
         54:79:ef:fe:a5:3b:64:32:16:cb:fc:1e:cc:7d:e1:c8:6b:a3:
         06:4f:f2:30:0b:98:b2:13:2d:f1:9c:b0:79:2d:d1:8c:84:73:
         a4:38:8f:57:17:69:b9:3f:61:fe:5a:c7:11:61:bb:ff:de:15:
         d6:e7:31:0f:63:32:eb:d7:5c:7c:6f:fc:3a:50:d8:0d:01:76:
         a9:98:a8:2b:88:dd:bc:e7:ea:89:22:96:89:c1:49:63:84:3f:
         d7:d3:c7:19:b3:cd:22:0c:26:6b:46:35:44:72:20:eb:92:5b:
         f3:0f:78:c2:01:67:02:f0:19:6a:9f:72:a8:b8:fd:30:51:ab:
         2f:21:a4:40:da:07:fd:e1:b8:19:82:87:5d:c9:35:c7:4d:ff:
         37:db:d0:99:88:22:21:80
-----BEGIN CERTIFICATE-----
MIIFITCCAwmgAwIBAgIBIDANBgkqhkiG9w0BAQsFADCBhzELMAkGA1UEBhMCSU4x
DjAMBgNVBAgMBURlbGhpMQ4wDAYDVQQHDAVEZWxoaTEOMAwGA1UECgwFSUlJVEQx
CzAJBgNVBAsMAk5TMREwDwYDVQQDDAhBbnNodW1hbjEoMCYGCSqGSIb3DQEJARYZ
YW5zaHVtYW4xNDAyMUBpaWl0ZC5hYy5pbjAeFw0xNjExMjAxODM4NDBaFw0xOTA4
MTcxODM4NDBaMEgxCzAJBgNVBAYTAklOMQ4wDAYDVQQIDAVEZWxoaTEMMAoGA1UE
BwwDTkNSMQ4wDAYDVQQKDAVJSUlURDELMAkGA1UEAwwCTlMwggEiMA0GCSqGSIb3
DQEBAQUAA4IBDwAwggEKAoIBAQCoYOlcTv2DB64R4NuFZ5QL3JD4b+d11mDZJImz
ohWZxDWvO+4iMO02oXColVLYvHCo2f8vvpOk6aIItPqBh68sR+GwiF3N/Xza3qEo
EZ1uLsDnrhws8Zp/J46vdKFgjdknWlaQ/x1HaUzIbECKRDej+tQ8QfeMdWZaSpex
MAgKUrCKMblg2ohNbMnN/KB2g0uLnzcv3GSf95fyeZ+/K5M/uFilyrmdY0QBbZxJ
bgilk0cCHVDDvkJg59xhkI08Cwt7bNUajTbyrVbWCmmBcTMtROtxRVY34Um7Lja1
cCHxFWE5whFlQs4J4aZPStMXez6v8Q2rIpFahZmtQFEmaoKjAgMBAAGjgdUwgdIw
HQYDVR0OBBYEFJYtQk9/YMGTMYojX1UEakiQiV5AMB8GA1UdIwQYMBaAFGQEa1Ns
AWBXoEf6y5gCLW8BmhDDMAkGA1UdEwQCMAAwCwYDVR0PBAQDAgWgMEoGA1UdEQRD
MEGCC2V4YW1wbGUuY29tgg93d3cuZXhhbXBsZS5jb22CEG1haWwuZXhhbXBsZS5j
b22CD2Z0cC5leGFtcGxlLmNvbTAsBglghkgBhvhCAQ0EHxYdT3BlblNTTCBHZW5l
cmF0ZWQgQ2VydGlmaWNhdGUwDQYJKoZIhvcNAQELBQADggIBALcHyP2tA48ZOGFn
zN4T41sc6k5hbtZoGVcMhvLHc+aRoEkVZmAIPS7uibDbOP+EoihGyCuwmiE2qFSs
2AnqvCwp7Kmvcuf+otYe7HOo4nk3dtprZyPKeo4hhZXD4qGZI/2WnhasXlocl6C4
maV7DyAr/+cYt7AzkCS3HSi/JGwdpMjOflSHmDmTHHkLUvXjBJ+6B9qKgqTTOBJt
apMWOYPog0l5vvRk5p0Lez/YcUwhigireq9Zasg5oWXlztNFqtHBMG0o+MwT/otn
N57ha+CrkuVi+q5aBp0Q+6/4b/e6y+bI8c8uFrvaLi0d+iO6ZFjsD9g961IKVLRG
+AHK5EfHy6Y6TjorwDWywrMZJZFmVHeAQBTqcYNCpeD3TCQHecHrnB1FrHCTF7Pa
iMiOHqABAMrDzgSMzEusmg8v8n7OCN5PspfXA2PCm+FQPIAj/xCuuqz/UjFKX7ub
JbsfO9LNzvSzv7KNa1R57/6lO2QyFsv8Hsx94chrowZP8jALmLITLfGcsHkt0YyE
c6Q4j1cXabk/Yf5axxFhu//eFdbnMQ9jMuvXXHxv/DpQ2A0BdqmYqCuI3bzn6oki
lonBSWOEP9fTxxmzzSIMJmtGNURyIOuSW/MPeMIBZwLwGWqfcqi4/TBRqy8hpEDa
B/3huBmCh13JNcdN/zfb0JmIIiGA
-----END CERTIFICATE-----
