Certificate:
    Data:
        Version: 3 (0x2)
        Serial Number: 33 (0x21)
    Signature Algorithm: sha256WithRSAEncryption
        Issuer: C=IN, ST=Delhi, L=Delhi, O=IIITD, OU=NS, CN=Anshuman/emailAddress=anshuman14021@iiitd.ac.in
        Validity
            Not Before: Nov 20 18:41:12 2016 GMT
            Not After : Aug 17 18:41:12 2019 GMT
        Subject: C=IN, ST=Delhi, L=NCR, O=IIITD, CN=NS
        Subject Public Key Info:
            Public Key Algorithm: rsaEncryption
                Public-Key: (2048 bit)
                Modulus:
                    00:c5:b8:bc:a9:e3:b0:54:d0:99:bd:d2:70:d5:76:
                    22:0d:80:b4:44:7d:26:35:2b:ea:20:48:05:c4:7f:
                    3f:5b:2b:d4:0d:bd:bb:ad:6e:51:5c:e0:7d:94:a2:
                    d8:35:70:da:d6:29:2d:d2:84:47:59:e8:73:98:85:
                    d3:2a:6b:14:25:b4:f1:af:fb:98:35:8f:4f:2d:75:
                    2b:48:5c:ba:14:d7:0c:52:e5:b1:de:f1:e9:0b:1c:
                    fb:f0:0b:28:c4:2b:55:11:00:eb:3b:18:63:43:3d:
                    f9:b6:c3:ed:47:13:20:ea:30:85:23:06:ea:7d:3c:
                    eb:9b:73:b9:15:88:eb:ff:ff:4e:0f:90:db:05:91:
                    c5:39:d7:e9:eb:f5:3b:d9:31:92:c2:0a:9e:1a:dc:
                    a1:ae:58:24:ac:ff:c5:40:50:36:cb:29:00:b5:31:
                    2c:3f:82:98:09:66:97:1b:f0:3e:1c:9b:f0:2d:aa:
                    07:e5:fa:89:d5:3b:95:be:97:a4:02:c8:ad:e0:c3:
                    26:21:bb:8c:82:cf:19:60:07:d4:ba:47:d6:a9:ed:
                    3b:3c:ca:f1:88:2a:5f:31:ca:e8:c8:ca:47:65:40:
                    8d:51:8e:11:bd:90:6e:3d:44:66:2a:de:fb:9b:17:
                    42:8d:74:53:3a:91:84:9d:e4:e5:72:97:17:7c:5f:
                    89:c1
                Exponent: 65537 (0x10001)
        X509v3 extensions:
            X509v3 Subject Key Identifier: 
                86:D3:C0:4A:35:17:D0:B2:9C:2B:AD:F8:5A:0F:43:E8:59:40:93:F7
            X509v3 Authority Key Identifier: 
                keyid:64:04:6B:53:6C:01:60:57:A0:47:FA:CB:98:02:2D:6F:01:9A:10:C3

            X509v3 Basic Constraints: 
                CA:FALSE
            X509v3 Key Usage: 
                Digital Signature, Key Encipherment
            X509v3 Subject Alternative Name: 
                DNS:example.com, DNS:www.example.com, DNS:mail.example.com, DNS:ftp.example.com
            Netscape Comment: 
                OpenSSL Generated Certificate
    Signature Algorithm: sha256WithRSAEncryption
         68:d4:40:82:a6:48:fe:df:ec:15:36:38:5d:da:fe:88:0f:17:
         f5:c9:1a:6c:9f:3f:8b:90:e9:2e:ac:c9:02:85:53:eb:61:f9:
         6e:e7:a6:a5:e5:df:c8:64:72:35:33:47:4b:74:92:88:4b:a9:
         3d:7a:79:8f:c7:bc:24:cc:37:b1:b8:6c:13:0f:20:5b:1e:c4:
         08:75:89:81:a7:f0:04:3c:10:d3:ac:93:43:17:cc:e8:af:db:
         ce:e6:0c:dc:85:82:1a:17:f7:8d:16:f8:9b:4c:79:de:5f:c9:
         9a:18:d3:f6:f6:c5:fb:ae:e7:b5:a5:19:21:c0:08:1d:8e:34:
         a3:dc:d0:a8:56:b6:ee:ad:88:35:f9:2c:8f:0a:df:8a:e1:16:
         a5:8a:71:af:bb:1f:d8:8c:9d:92:89:21:30:42:54:9f:e2:99:
         22:4a:e3:7c:5f:d9:b8:a5:86:c8:41:12:ca:f8:e9:fa:eb:a7:
         71:d4:d8:42:db:9a:a9:3f:e3:35:2c:44:25:53:bc:45:f3:39:
         f1:fd:72:e1:68:e1:25:f7:69:44:94:e8:13:76:52:6e:de:27:
         8f:a2:fa:1a:37:a6:0e:2d:75:50:99:6b:da:d2:cb:a0:80:85:
         aa:c2:4f:00:ea:e1:0b:ea:a1:f6:3a:87:c1:00:c3:a8:01:4d:
         81:1e:a4:d5:06:b2:d7:38:ed:35:c8:db:dc:1f:21:28:99:6c:
         e4:99:f0:ee:b4:83:bc:40:06:36:47:12:e2:de:de:c7:fd:1f:
         94:03:e5:bd:15:18:56:39:85:3a:fa:cb:4b:6c:b3:b7:10:db:
         82:5e:e7:f1:8a:8b:be:44:a0:29:c5:95:00:73:b2:bb:e6:d5:
         74:e8:90:7a:18:11:2f:8a:43:a1:6a:8e:93:1a:87:63:64:d5:
         12:c1:25:bc:8a:0e:b6:e5:aa:43:74:95:a3:71:48:5f:97:40:
         77:24:35:7b:60:f1:e8:58:0b:ee:a8:58:52:f8:c8:9a:48:65:
         5a:1d:03:50:85:b8:06:18:84:02:b9:8d:fc:5a:e8:64:ce:fe:
         cc:06:64:91:68:c1:5a:79:99:1d:49:b1:fc:db:6f:0c:0c:9c:
         71:52:f7:2b:09:bd:31:be:53:2c:8f:41:73:ff:6f:a3:e2:17:
         b3:fc:a1:18:fd:b2:e6:a5:24:e7:aa:0a:fc:ca:31:08:eb:e4:
         6a:66:8c:8f:d0:41:00:de:a1:d5:19:eb:4b:f4:be:b3:a1:eb:
         e5:1f:fe:b7:a2:7b:45:af:88:3f:61:83:2a:f9:0e:f1:dc:5b:
         ac:3a:37:6a:20:78:c6:fc:72:54:08:eb:7d:f8:c8:2e:59:43:
         18:f3:f9:c5:16:6a:19:6b
-----BEGIN CERTIFICATE-----
MIIFITCCAwmgAwIBAgIBITANBgkqhkiG9w0BAQsFADCBhzELMAkGA1UEBhMCSU4x
DjAMBgNVBAgMBURlbGhpMQ4wDAYDVQQHDAVEZWxoaTEOMAwGA1UECgwFSUlJVEQx
CzAJBgNVBAsMAk5TMREwDwYDVQQDDAhBbnNodW1hbjEoMCYGCSqGSIb3DQEJARYZ
YW5zaHVtYW4xNDAyMUBpaWl0ZC5hYy5pbjAeFw0xNjExMjAxODQxMTJaFw0xOTA4
MTcxODQxMTJaMEgxCzAJBgNVBAYTAklOMQ4wDAYDVQQIDAVEZWxoaTEMMAoGA1UE
BwwDTkNSMQ4wDAYDVQQKDAVJSUlURDELMAkGA1UEAwwCTlMwggEiMA0GCSqGSIb3
DQEBAQUAA4IBDwAwggEKAoIBAQDFuLyp47BU0Jm90nDVdiINgLREfSY1K+ogSAXE
fz9bK9QNvbutblFc4H2Uotg1cNrWKS3ShEdZ6HOYhdMqaxQltPGv+5g1j08tdStI
XLoU1wxS5bHe8ekLHPvwCyjEK1URAOs7GGNDPfm2w+1HEyDqMIUjBup9POubc7kV
iOv//04PkNsFkcU51+nr9TvZMZLCCp4a3KGuWCSs/8VAUDbLKQC1MSw/gpgJZpcb
8D4cm/Atqgfl+onVO5W+l6QCyK3gwyYhu4yCzxlgB9S6R9ap7Ts8yvGIKl8xyujI
ykdlQI1RjhG9kG49RGYq3vubF0KNdFM6kYSd5OVylxd8X4nBAgMBAAGjgdUwgdIw
HQYDVR0OBBYEFIbTwEo1F9CynCut+FoPQ+hZQJP3MB8GA1UdIwQYMBaAFGQEa1Ns
AWBXoEf6y5gCLW8BmhDDMAkGA1UdEwQCMAAwCwYDVR0PBAQDAgWgMEoGA1UdEQRD
MEGCC2V4YW1wbGUuY29tgg93d3cuZXhhbXBsZS5jb22CEG1haWwuZXhhbXBsZS5j
b22CD2Z0cC5leGFtcGxlLmNvbTAsBglghkgBhvhCAQ0EHxYdT3BlblNTTCBHZW5l
cmF0ZWQgQ2VydGlmaWNhdGUwDQYJKoZIhvcNAQELBQADggIBAGjUQIKmSP7f7BU2
OF3a/ogPF/XJGmyfP4uQ6S6syQKFU+th+W7npqXl38hkcjUzR0t0kohLqT16eY/H
vCTMN7G4bBMPIFsexAh1iYGn8AQ8ENOsk0MXzOiv287mDNyFghoX940W+JtMed5f
yZoY0/b2xfuu57WlGSHACB2ONKPc0KhWtu6tiDX5LI8K34rhFqWKca+7H9iMnZKJ
ITBCVJ/imSJK43xf2bilhshBEsr46frrp3HU2ELbmqk/4zUsRCVTvEXzOfH9cuFo
4SX3aUSU6BN2Um7eJ4+i+ho3pg4tdVCZa9rSy6CAharCTwDq4QvqofY6h8EAw6gB
TYEepNUGstc47TXI29wfISiZbOSZ8O60g7xABjZHEuLe3sf9H5QD5b0VGFY5hTr6
y0tss7cQ24Je5/GKi75EoCnFlQBzsrvm1XTokHoYES+KQ6FqjpMah2Nk1RLBJbyK
DrblqkN0laNxSF+XQHckNXtg8ehYC+6oWFL4yJpIZVodA1CFuAYYhAK5jfxa6GTO
/swGZJFowVp5mR1JsfzbbwwMnHFS9ysJvTG+UyyPQXP/b6PiF7P8oRj9sualJOeq
CvzKMQjr5GpmjI/QQQDeodUZ60v0vrOh6+Uf/reie0WviD9hgyr5DvHcW6w6N2og
eMb8clQI6334yC5ZQxjz+cUWahlr
-----END CERTIFICATE-----
