Certificate:
    Data:
        Version: 3 (0x2)
        Serial Number: 34 (0x22)
    Signature Algorithm: sha256WithRSAEncryption
        Issuer: C=IN, ST=Delhi, L=Delhi, O=IIITD, OU=NS, CN=Anshuman/emailAddress=anshuman14021@iiitd.ac.in
        Validity
            Not Before: Nov 20 18:41:27 2016 GMT
            Not After : Aug 17 18:41:27 2019 GMT
        Subject: C=IN, ST=Delhi, L=NCR, O=IIITD, CN=NS
        Subject Public Key Info:
            Public Key Algorithm: rsaEncryption
                Public-Key: (2048 bit)
                Modulus:
                    00:99:8a:dd:8b:2d:41:90:c3:cd:6c:6e:24:d4:b6:
                    59:74:d3:54:b3:77:dd:f4:29:74:40:d9:84:39:74:
                    3e:fb:4a:18:78:df:2c:e5:30:b1:af:cc:33:71:d9:
                    43:6c:9e:fa:2e:1d:cf:cd:f4:f2:5b:60:d0:7d:33:
                    17:a8:1e:fd:02:98:59:f5:d3:1d:fd:54:26:d5:b2:
                    98:46:98:1e:0a:a2:db:22:9a:35:e7:2a:07:d3:18:
                    8a:40:af:9d:71:bc:57:a1:8e:4d:e1:38:38:b1:27:
                    53:d4:a5:c2:3e:77:70:a6:9c:3d:0c:c1:b3:96:d5:
                    45:2f:34:b0:48:dd:28:db:cd:f3:82:6c:4a:d5:60:
                    5a:ad:35:17:f3:2d:90:5c:ac:8a:65:1f:cf:ab:ff:
                    fd:0d:54:f8:a0:d4:a8:f9:10:d2:79:be:a7:c9:ce:
                    f8:6b:b8:58:25:38:de:6a:a6:19:d7:30:95:89:90:
                    ca:4f:97:d0:41:7d:dc:56:a3:d3:fc:b6:26:ab:3c:
                    e3:6c:aa:bb:a3:b7:4a:ea:69:a8:25:b5:64:20:e7:
                    04:a0:e7:5f:ca:eb:ab:84:24:31:6e:fd:17:fa:d4:
                    dc:c2:f5:10:a4:db:ad:2d:f7:fb:71:85:58:da:24:
                    70:d5:51:78:cf:5d:1e:40:55:0f:68:4c:cd:f2:cc:
                    f5:e3
                Exponent: 65537 (0x10001)
        X509v3 extensions:
            X509v3 Subject Key Identifier: 
                DD:4D:AB:EA:C8:EF:FB:3E:C1:7E:98:1A:0D:57:37:6C:06:DB:22:F8
            X509v3 Authority Key Identifier: 
                keyid:64:04:6B:53:6C:01:60:57:A0:47:FA:CB:98:02:2D:6F:01:9A:10:C3

            X509v3 Basic Constraints: 
                CA:FALSE
            X509v3 Key Usage: 
                Digital Signature, Key Encipherment
            X509v3 Subject Alternative Name: 
                DNS:example.com, DNS:www.example.com, DNS:mail.example.com, DNS:ftp.example.com
            Netscape Comment: 
                OpenSSL Generated Certificate
    Signature Algorithm: sha256WithRSAEncryption
         a0:70:eb:ad:f3:de:ae:47:a7:85:10:98:b3:07:ff:6e:07:6e:
         6e:fc:b6:c3:cf:8a:87:4e:10:71:f5:13:b3:b7:47:73:27:e1:
         53:d8:0c:a7:4e:86:90:58:79:b2:3a:16:37:ab:db:6e:ca:c9:
         87:3e:be:6a:01:9a:d3:62:af:61:2f:6a:5c:5c:24:77:e7:01:
         d1:b9:87:4d:f1:5c:70:b8:80:5a:60:58:25:bf:3f:62:e3:03:
         c8:1a:72:9d:ae:aa:03:32:8e:eb:69:62:d9:c3:52:23:5f:8c:
         c6:3a:1e:cc:50:8f:73:36:91:85:cc:90:56:6c:aa:64:bf:b6:
         eb:c3:3a:79:59:3c:a0:48:c4:b1:b8:4c:03:f0:77:0d:17:97:
         78:d2:83:ac:81:9b:bc:a8:41:de:10:13:6e:77:02:80:d9:ef:
         28:f7:8f:33:e1:f5:8a:99:c5:d3:be:0e:74:19:f4:28:b0:ea:
         b1:d0:9a:0a:1c:66:2a:c0:87:95:b2:12:54:c3:7a:1c:f1:6f:
         02:eb:c8:75:31:9f:38:6c:84:39:a5:8c:ba:64:43:60:3a:32:
         ca:6f:ea:7a:62:52:9b:9d:b8:e3:6a:90:ac:7c:02:3e:39:12:
         f9:0a:d2:42:fd:23:bc:48:41:df:74:00:55:84:40:a9:f4:6b:
         f4:09:8a:d2:18:10:57:7c:f3:20:53:eb:7c:d0:ca:1b:38:0f:
         c9:09:92:fd:86:3b:48:d6:6b:52:12:ad:7c:ef:0a:02:6a:64:
         18:0e:9c:df:66:9f:50:de:57:19:d2:c0:97:f0:54:b6:6a:08:
         55:08:fd:19:6f:7c:26:52:dc:a1:77:07:f5:ac:8b:9c:d7:89:
         2d:33:29:6d:d4:b7:e0:dc:4f:be:1d:91:35:e9:ea:9b:06:67:
         96:a6:1a:b4:a3:67:4e:e8:a3:6f:0f:91:4a:6d:c2:e7:d7:84:
         6a:51:26:fb:d2:25:31:b7:e5:e3:77:1e:71:56:40:77:ab:56:
         d7:19:05:eb:e8:f7:35:8d:21:f3:c1:e9:9a:7f:c5:54:cb:b8:
         0f:06:51:be:88:59:ce:3f:19:90:53:df:de:b5:36:c1:91:8b:
         a3:d0:22:0a:7f:7a:d7:52:1e:51:8e:1d:56:2a:24:94:b7:62:
         96:12:07:40:68:73:43:d2:e7:3c:be:90:50:42:5f:68:07:75:
         08:42:a3:89:59:fa:ce:28:ab:5b:f0:ed:38:2f:51:b9:70:5c:
         72:32:35:72:10:c0:8b:0f:e8:1c:5e:82:3c:13:cd:31:59:b3:
         30:66:6a:ae:47:45:fb:5e:0b:60:e4:3f:23:77:26:d1:f5:e8:
         b0:f1:fd:a4:4c:59:9a:8e
-----BEGIN CERTIFICATE-----
MIIFITCCAwmgAwIBAgIBIjANBgkqhkiG9w0BAQsFADCBhzELMAkGA1UEBhMCSU4x
DjAMBgNVBAgMBURlbGhpMQ4wDAYDVQQHDAVEZWxoaTEOMAwGA1UECgwFSUlJVEQx
CzAJBgNVBAsMAk5TMREwDwYDVQQDDAhBbnNodW1hbjEoMCYGCSqGSIb3DQEJARYZ
YW5zaHVtYW4xNDAyMUBpaWl0ZC5hYy5pbjAeFw0xNjExMjAxODQxMjdaFw0xOTA4
MTcxODQxMjdaMEgxCzAJBgNVBAYTAklOMQ4wDAYDVQQIDAVEZWxoaTEMMAoGA1UE
BwwDTkNSMQ4wDAYDVQQKDAVJSUlURDELMAkGA1UEAwwCTlMwggEiMA0GCSqGSIb3
DQEBAQUAA4IBDwAwggEKAoIBAQCZit2LLUGQw81sbiTUtll001Szd930KXRA2YQ5
dD77Shh43yzlMLGvzDNx2UNsnvouHc/N9PJbYNB9MxeoHv0CmFn10x39VCbVsphG
mB4KotsimjXnKgfTGIpAr51xvFehjk3hODixJ1PUpcI+d3CmnD0MwbOW1UUvNLBI
3SjbzfOCbErVYFqtNRfzLZBcrIplH8+r//0NVPig1Kj5ENJ5vqfJzvhruFglON5q
phnXMJWJkMpPl9BBfdxWo9P8tiarPONsqrujt0rqaagltWQg5wSg51/K66uEJDFu
/Rf61NzC9RCk260t9/txhVjaJHDVUXjPXR5AVQ9oTM3yzPXjAgMBAAGjgdUwgdIw
HQYDVR0OBBYEFN1Nq+rI7/s+wX6YGg1XN2wG2yL4MB8GA1UdIwQYMBaAFGQEa1Ns
AWBXoEf6y5gCLW8BmhDDMAkGA1UdEwQCMAAwCwYDVR0PBAQDAgWgMEoGA1UdEQRD
MEGCC2V4YW1wbGUuY29tgg93d3cuZXhhbXBsZS5jb22CEG1haWwuZXhhbXBsZS5j
b22CD2Z0cC5leGFtcGxlLmNvbTAsBglghkgBhvhCAQ0EHxYdT3BlblNTTCBHZW5l
cmF0ZWQgQ2VydGlmaWNhdGUwDQYJKoZIhvcNAQELBQADggIBAKBw663z3q5Hp4UQ
mLMH/24Hbm78tsPPiodOEHH1E7O3R3Mn4VPYDKdOhpBYebI6Fjer227KyYc+vmoB
mtNir2EvalxcJHfnAdG5h03xXHC4gFpgWCW/P2LjA8gacp2uqgMyjutpYtnDUiNf
jMY6HsxQj3M2kYXMkFZsqmS/tuvDOnlZPKBIxLG4TAPwdw0Xl3jSg6yBm7yoQd4Q
E253AoDZ7yj3jzPh9YqZxdO+DnQZ9Ciw6rHQmgocZirAh5WyElTDehzxbwLryHUx
nzhshDmljLpkQ2A6Mspv6npiUpuduONqkKx8Aj45EvkK0kL9I7xIQd90AFWEQKn0
a/QJitIYEFd88yBT63zQyhs4D8kJkv2GO0jWa1ISrXzvCgJqZBgOnN9mn1DeVxnS
wJfwVLZqCFUI/RlvfCZS3KF3B/Wsi5zXiS0zKW3Ut+DcT74dkTXp6psGZ5amGrSj
Z07oo28PkUptwufXhGpRJvvSJTG35eN3HnFWQHerVtcZBevo9zWNIfPB6Zp/xVTL
uA8GUb6IWc4/GZBT3961NsGRi6PQIgp/etdSHlGOHVYqJJS3YpYSB0Boc0PS5zy+
kFBCX2gHdQhCo4lZ+s4oq1vw7TgvUblwXHIyNXIQwIsP6BxegjwTzTFZszBmaq5H
RfteC2DkPyN3JtH16LDx/aRMWZqO
-----END CERTIFICATE-----
